
test.elf:     file format elf32-msp430


Disassembly of section .text:

00008000 <__watchdog_support>:
    8000:	55 42 5c 01 	mov.b	&0x015c,r5	
    8004:	35 d0 08 5a 	bis	#23048,	r5	;#0x5a08
    8008:	82 45 7a 1c 	mov	r5,	&0x1c7a	

0000800c <__init_stack>:
    800c:	31 40 fe 2b 	mov	#11262,	r1	;#0x2bfe

00008010 <__do_copy_data>:
    8010:	3f 40 26 00 	mov	#38,	r15	;#0x0026
    8014:	0f 93       	tst	r15		
    8016:	08 24       	jz	$+18     	;abs 0x8028
    8018:	92 42 7a 1c 	mov	&0x1c7a,&0x015c	
    801c:	5c 01 
    801e:	2f 83       	decd	r15		
    8020:	9f 4f 54 92 	mov	-28076(r15),7168(r15);0x9254(r15), 0x1c00(r15)
    8024:	00 1c 
    8026:	f8 23       	jnz	$-14     	;abs 0x8018

00008028 <__do_clear_bss>:
    8028:	3f 40 54 00 	mov	#84,	r15	;#0x0054
    802c:	0f 93       	tst	r15		
    802e:	07 24       	jz	$+16     	;abs 0x803e
    8030:	92 42 7a 1c 	mov	&0x1c7a,&0x015c	
    8034:	5c 01 
    8036:	1f 83       	dec	r15		
    8038:	cf 43 26 1c 	mov.b	#0,	7206(r15);r3 As==00, 0x1c26(r15)
    803c:	f9 23       	jnz	$-12     	;abs 0x8030

0000803e <main>:
    803e:	b2 40 2d 5a 	mov	#23085,	&0x015c	;#0x5a2d
    8042:	5c 01 
    8044:	92 d3 00 01 	bis	#1,	&0x0100	;r3 As==01
    8048:	6f 43       	mov.b	#2,	r15	;r3 As==10
    804a:	b0 12 52 82 	call	#0x8252	
    804e:	b0 12 dc 83 	call	#0x83dc	
    8052:	b0 12 4a 86 	call	#0x864a	
    8056:	b0 12 28 86 	call	#0x8628	
    805a:	b0 12 ce 86 	call	#0x86ce	
    805e:	b0 12 94 86 	call	#0x8694	
    8062:	d2 43 2c 1c 	mov.b	#1,	&0x1c2c	;r3 As==01
    8066:	32 d2       	eint			
    8068:	b2 40 2d 5a 	mov	#23085,	&0x015c	;#0x5a2d
    806c:	5c 01 
    806e:	03 43       	nop			
    8070:	92 b3 20 03 	bit	#1,	&0x0320	;r3 As==01
    8074:	19 20       	jnz	$+52     	;abs 0x80a8
    8076:	03 43       	nop			
    8078:	92 b3 20 03 	bit	#1,	&0x0320	;r3 As==01
    807c:	15 20       	jnz	$+44     	;abs 0x80a8
    807e:	03 43       	nop			
    8080:	f2 d0 40 00 	bis.b	#64,	&0x0203	;#0x0040
    8084:	03 02 
    8086:	b0 12 b0 86 	call	#0x86b0	
    808a:	c2 43 2c 1c 	mov.b	#0,	&0x1c2c	;r3 As==00
    808e:	7e 40 06 00 	mov.b	#6,	r14	;#0x0006
    8092:	3f 40 47 92 	mov	#-28089,r15	;#0x9247
    8096:	b0 12 6c 86 	call	#0x866c	
    809a:	d2 43 2e 1c 	mov.b	#1,	&0x1c2e	;r3 As==01
    809e:	92 b3 20 03 	bit	#1,	&0x0320	;r3 As==01
    80a2:	fd 27       	jz	$-4      	;abs 0x809e
    80a4:	d2 43 32 1c 	mov.b	#1,	&0x1c32	;r3 As==01
    80a8:	c2 93 2e 1c 	tst.b	&0x1c2e	
    80ac:	04 20       	jnz	$+10     	;abs 0x80b6
    80ae:	b0 12 94 86 	call	#0x8694	
    80b2:	d2 43 2c 1c 	mov.b	#1,	&0x1c2c	;r3 As==01
    80b6:	c2 93 32 1c 	tst.b	&0x1c32	
    80ba:	11 24       	jz	$+36     	;abs 0x80de
    80bc:	f2 d0 40 00 	bis.b	#64,	&0x0203	;#0x0040
    80c0:	03 02 
    80c2:	b0 12 b0 86 	call	#0x86b0	
    80c6:	c2 43 2c 1c 	mov.b	#0,	&0x1c2c	;r3 As==00
    80ca:	7e 40 06 00 	mov.b	#6,	r14	;#0x0006
    80ce:	3f 40 47 92 	mov	#-28089,r15	;#0x9247
    80d2:	b0 12 6c 86 	call	#0x866c	
    80d6:	d2 43 2e 1c 	mov.b	#1,	&0x1c2e	;r3 As==01
    80da:	c2 43 32 1c 	mov.b	#0,	&0x1c32	;r3 As==00
    80de:	e2 92 26 1c 	cmp.b	#4,	&0x1c26	;r2 As==10
    80e2:	c2 23       	jnz	$-122    	;abs 0x8068
    80e4:	d2 43 32 1c 	mov.b	#1,	&0x1c32	;r3 As==01
    80e8:	c2 43 26 1c 	mov.b	#0,	&0x1c26	;r3 As==00
    80ec:	bd 3f       	jmp	$-132    	;abs 0x8068

000080ee <__stop_progExec__>:
    80ee:	32 d0 f0 00 	bis	#240,	r2	;#0x00f0
    80f2:	fd 3f       	jmp	$-4      	;abs 0x80ee

000080f4 <__ctors_end>:
    80f4:	30 40 1a 92 	br	#0x921a	

000080f8 <SetVCoreUp>:
    80f8:	0b 12       	push	r11		
    80fa:	f2 40 a5 ff 	mov.b	#-91,	&0x0121	;#0xffa5
    80fe:	21 01 
    8100:	1b 42 2e 01 	mov	&0x012e,r11	
    8104:	b2 f0 aa df 	and	#-8278,	&0x012e	;#0xdfaa
    8108:	2e 01 
    810a:	1c 42 24 01 	mov	&0x0124,r12	
    810e:	b2 f0 cf ff 	and	#-49,	&0x012c	;#0xffcf
    8112:	2c 01 
    8114:	4d 4f       	mov.b	r15,	r13	
    8116:	3d d0 00 c0 	bis	#-16384,r13	;#0xc000
    811a:	82 4d 24 01 	mov	r13,	&0x0124	
    811e:	b2 b0 10 00 	bit	#16,	&0x012c	;#0x0010
    8122:	2c 01 
    8124:	fc 27       	jz	$-6      	;abs 0x811e
    8126:	b2 f0 ff f7 	and	#-2049,	&0x0124	;#0xf7ff
    812a:	24 01 
    812c:	b2 b0 20 00 	bit	#32,	&0x012c	;#0x0020
    8130:	2c 01 
    8132:	12 24       	jz	$+38     	;abs 0x8158
    8134:	b2 f0 ef ff 	and	#-17,	&0x012c	;#0xffef
    8138:	2c 01 
    813a:	82 4c 24 01 	mov	r12,	&0x0124	
    813e:	b2 b0 10 00 	bit	#16,	&0x012c	;#0x0010
    8142:	2c 01 
    8144:	fc 27       	jz	$-6      	;abs 0x813e
    8146:	b2 f0 88 ff 	and	#-120,	&0x012c	;#0xff88
    814a:	2c 01 
    814c:	82 4b 2e 01 	mov	r11,	&0x012e	
    8150:	c2 43 21 01 	mov.b	#0,	&0x0121	;r3 As==00
    8154:	1f 43       	mov	#1,	r15	;r3 As==01
    8156:	31 3c       	jmp	$+100    	;abs 0x81ba
    8158:	1c 42 24 01 	mov	&0x0124,r12	
    815c:	4e 4f       	mov.b	r15,	r14	
    815e:	8e 10       	swpb	r14		
    8160:	3c d0 00 04 	bis	#1024,	r12	;#0x0400
    8164:	0c de       	bis	r14,	r12	
    8166:	82 4c 24 01 	mov	r12,	&0x0124	
    816a:	82 4d 26 01 	mov	r13,	&0x0126	
    816e:	92 b3 2c 01 	bit	#1,	&0x012c	;r3 As==01
    8172:	fd 27       	jz	$-4      	;abs 0x816e
    8174:	b2 f0 f9 ff 	and	#-7,	&0x012c	;#0xfff9
    8178:	2c 01 
    817a:	c2 4f 20 01 	mov.b	r15,	&0x0120	
    817e:	a2 b3 2c 01 	bit	#2,	&0x012c	;r3 As==10
    8182:	03 24       	jz	$+8      	;abs 0x818a
    8184:	a2 b2 2c 01 	bit	#4,	&0x012c	;r2 As==10
    8188:	fd 27       	jz	$-4      	;abs 0x8184
    818a:	b2 f0 fe ff 	and	#-2,	&0x012c	;#0xfffe
    818e:	2c 01 
    8190:	1f 42 26 01 	mov	&0x0126,r15	
    8194:	3f d0 00 04 	bis	#1024,	r15	;#0x0400
    8198:	0f de       	bis	r14,	r15	
    819a:	82 4f 26 01 	mov	r15,	&0x0126	
    819e:	92 b3 2c 01 	bit	#1,	&0x012c	;r3 As==01
    81a2:	fd 27       	jz	$-4      	;abs 0x819e
    81a4:	b2 f0 ff f7 	and	#-2049,	&0x0126	;#0xf7ff
    81a8:	26 01 
    81aa:	b2 f0 88 ff 	and	#-120,	&0x012c	;#0xff88
    81ae:	2c 01 
    81b0:	82 4b 2e 01 	mov	r11,	&0x012e	
    81b4:	c2 43 21 01 	mov.b	#0,	&0x0121	;r3 As==00
    81b8:	0f 43       	clr	r15		
    81ba:	3b 41       	pop	r11		
    81bc:	30 41       	ret			

000081be <SetVCoreDown>:
    81be:	f2 40 a5 ff 	mov.b	#-91,	&0x0121	;#0xffa5
    81c2:	21 01 
    81c4:	1d 42 2e 01 	mov	&0x012e,r13	
    81c8:	b2 f0 aa df 	and	#-8278,	&0x012e	;#0xdfaa
    81cc:	2e 01 
    81ce:	b2 f0 cc ff 	and	#-52,	&0x012c	;#0xffcc
    81d2:	2c 01 
    81d4:	4e 4f       	mov.b	r15,	r14	
    81d6:	3e d0 00 c0 	bis	#-16384,r14	;#0xc000
    81da:	82 4e 24 01 	mov	r14,	&0x0124	
    81de:	82 4e 26 01 	mov	r14,	&0x0126	
    81e2:	b2 b0 10 00 	bit	#16,	&0x012c	;#0x0010
    81e6:	2c 01 
    81e8:	fc 27       	jz	$-6      	;abs 0x81e2
    81ea:	92 b3 2c 01 	bit	#1,	&0x012c	;r3 As==01
    81ee:	f9 27       	jz	$-12     	;abs 0x81e2
    81f0:	c2 4f 20 01 	mov.b	r15,	&0x0120	
    81f4:	b2 f0 ee cf 	and	#-12306,&0x012c	;#0xcfee
    81f8:	2c 01 
    81fa:	1e 42 24 01 	mov	&0x0124,r14	
    81fe:	4f 4f       	mov.b	r15,	r15	
    8200:	8f 10       	swpb	r15		
    8202:	3e d0 00 0c 	bis	#3072,	r14	;#0x0c00
    8206:	0e df       	bis	r15,	r14	
    8208:	82 4e 24 01 	mov	r14,	&0x0124	
    820c:	1e 42 26 01 	mov	&0x0126,r14	
    8210:	3e d0 00 0c 	bis	#3072,	r14	;#0x0c00
    8214:	0e df       	bis	r15,	r14	
    8216:	82 4e 26 01 	mov	r14,	&0x0126	
    821a:	b2 b0 10 00 	bit	#16,	&0x012c	;#0x0010
    821e:	2c 01 
    8220:	fc 27       	jz	$-6      	;abs 0x821a
    8222:	92 b3 2c 01 	bit	#1,	&0x012c	;r3 As==01
    8226:	f9 27       	jz	$-12     	;abs 0x821a
    8228:	b2 f0 ff f7 	and	#-2049,	&0x0124	;#0xf7ff
    822c:	24 01 
    822e:	b2 f0 ff f7 	and	#-2049,	&0x0126	;#0xf7ff
    8232:	26 01 
    8234:	b2 f0 88 ff 	and	#-120,	&0x012c	;#0xff88
    8238:	2c 01 
    823a:	82 4d 2e 01 	mov	r13,	&0x012e	
    823e:	c2 43 21 01 	mov.b	#0,	&0x0121	;r3 As==00
    8242:	1e 42 2c 01 	mov	&0x012c,r14	
    8246:	3e f0 20 00 	and	#32,	r14	;#0x0020
    824a:	1f 43       	mov	#1,	r15	;r3 As==01
    824c:	01 20       	jnz	$+4      	;abs 0x8250
    824e:	0f 43       	clr	r15		
    8250:	30 41       	ret			

00008252 <SetVCore>:
    8252:	1b 15       	pushm	#2,	r11	
    8254:	1b 42 20 01 	mov	&0x0120,r11	
    8258:	3b f0 03 00 	and	#3,	r11	;#0x0003
    825c:	0e 43       	clr	r14		
    825e:	0a 4f       	mov	r15,	r10	
    8260:	3a f0 03 00 	and	#3,	r10	;#0x0003
    8264:	0c 3c       	jmp	$+26     	;abs 0x827e
    8266:	0b 9a       	cmp	r10,	r11	
    8268:	05 2c       	jc	$+12     	;abs 0x8274
    826a:	1b 53       	inc	r11		
    826c:	4f 4b       	mov.b	r11,	r15	
    826e:	b0 12 f8 80 	call	#0x80f8	
    8272:	04 3c       	jmp	$+10     	;abs 0x827c
    8274:	3b 53       	add	#-1,	r11	;r3 As==11
    8276:	4f 4b       	mov.b	r11,	r15	
    8278:	b0 12 be 81 	call	#0x81be	
    827c:	0e 4f       	mov	r15,	r14	
    827e:	0a 9b       	cmp	r11,	r10	
    8280:	04 24       	jz	$+10     	;abs 0x828a
    8282:	0e 93       	tst	r14		
    8284:	f0 27       	jz	$-30     	;abs 0x8266
    8286:	0a 9b       	cmp	r11,	r10	
    8288:	ee 2b       	jnc	$-34     	;abs 0x8266
    828a:	0f 4e       	mov	r14,	r15	
    828c:	1a 17       	popm	#2,	r11	
    828e:	30 41       	ret			

00008290 <ReadSingleReg>:
    8290:	7f 90 2f 00 	cmp.b	#47,	r15	;#0x002f
    8294:	03 28       	jnc	$+8      	;abs 0x829c
    8296:	7f 90 3e 00 	cmp.b	#62,	r15	;#0x003e
    829a:	03 20       	jnz	$+8      	;abs 0x82a2
    829c:	7f d0 80 ff 	bis.b	#-128,	r15	;#0xff80
    82a0:	02 3c       	jmp	$+6      	;abs 0x82a6
    82a2:	7f d0 c0 ff 	bis.b	#-64,	r15	;#0xffc0
    82a6:	c2 4f 13 0f 	mov.b	r15,	&0x0f13	
    82aa:	b2 b0 80 00 	bit	#128,	&0x0f02	;#0x0080
    82ae:	02 0f 
    82b0:	fc 27       	jz	$-6      	;abs 0x82aa
    82b2:	5f 42 22 0f 	mov.b	&0x0f22,r15	
    82b6:	30 41       	ret			

000082b8 <WriteSingleReg>:
    82b8:	b2 b0 10 00 	bit	#16,	&0x0f02	;#0x0010
    82bc:	02 0f 
    82be:	fc 27       	jz	$-6      	;abs 0x82b8
    82c0:	7f d0 40 00 	bis.b	#64,	r15	;#0x0040
    82c4:	c2 4f 11 0f 	mov.b	r15,	&0x0f11	
    82c8:	c2 4e 10 0f 	mov.b	r14,	&0x0f10	
    82cc:	03 43       	nop			
    82ce:	30 41       	ret			

000082d0 <Strobe>:
    82d0:	1b 15       	pushm	#2,	r11	
    82d2:	4b 4f       	mov.b	r15,	r11	
    82d4:	7f 90 bd ff 	cmp.b	#-67,	r15	;#0xffbd
    82d8:	05 24       	jz	$+12     	;abs 0x82e4
    82da:	7f 50 d0 ff 	add.b	#-48,	r15	;#0xffd0
    82de:	7f 90 0e 00 	cmp.b	#14,	r15	;#0x000e
    82e2:	3b 2c       	jc	$+120    	;abs 0x835a
    82e4:	b2 f0 bf ff 	and	#-65,	&0x0f02	;#0xffbf
    82e8:	02 0f 
    82ea:	b2 b0 10 00 	bit	#16,	&0x0f02	;#0x0010
    82ee:	02 0f 
    82f0:	fc 27       	jz	$-6      	;abs 0x82ea
    82f2:	4f 4b       	mov.b	r11,	r15	
    82f4:	7f 50 cf ff 	add.b	#-49,	r15	;#0xffcf
    82f8:	7f 90 0c 00 	cmp.b	#12,	r15	;#0x000c
    82fc:	29 2c       	jc	$+84     	;abs 0x8350
    82fe:	4f 43       	clr.b	r15		
    8300:	b0 12 90 82 	call	#0x8290	
    8304:	4a 4f       	mov.b	r15,	r10	
    8306:	7e 40 29 00 	mov.b	#41,	r14	;#0x0029
    830a:	4f 43       	clr.b	r15		
    830c:	b0 12 b8 82 	call	#0x82b8	
    8310:	c2 4b 11 0f 	mov.b	r11,	&0x0f11	
    8314:	a2 b2 30 0f 	bit	#4,	&0x0f30	;r2 As==10
    8318:	12 24       	jz	$+38     	;abs 0x833e
    831a:	7b 90 32 00 	cmp.b	#50,	r11	;#0x0032
    831e:	0f 24       	jz	$+32     	;abs 0x833e
    8320:	7b 90 39 00 	cmp.b	#57,	r11	;#0x0039
    8324:	0c 24       	jz	$+26     	;abs 0x833e
    8326:	7b 90 38 00 	cmp.b	#56,	r11	;#0x0038
    832a:	09 24       	jz	$+20     	;abs 0x833e
    832c:	a2 b2 30 0f 	bit	#4,	&0x0f30	;r2 As==10
    8330:	fd 23       	jnz	$-4      	;abs 0x832c
    8332:	3d 40 1a 01 	mov	#282,	r13	;#0x011a
    8336:	1d 83       	dec	r13		
    8338:	fe 23       	jnz	$-2      	;abs 0x8336
    833a:	03 43       	nop			
    833c:	03 43       	nop			
    833e:	4e 4a       	mov.b	r10,	r14	
    8340:	4f 43       	clr.b	r15		
    8342:	b0 12 b8 82 	call	#0x82b8	
    8346:	b2 b0 40 00 	bit	#64,	&0x0f02	;#0x0040
    834a:	02 0f 
    834c:	fc 27       	jz	$-6      	;abs 0x8346
    834e:	02 3c       	jmp	$+6      	;abs 0x8354
    8350:	c2 4b 11 0f 	mov.b	r11,	&0x0f11	
    8354:	5f 42 21 0f 	mov.b	&0x0f21,r15	
    8358:	01 3c       	jmp	$+4      	;abs 0x835c
    835a:	4f 43       	clr.b	r15		
    835c:	1a 17       	popm	#2,	r11	
    835e:	30 41       	ret			

00008360 <ReadBurstReg>:
    8360:	1b 15       	pushm	#2,	r11	
    8362:	b2 b0 10 00 	bit	#16,	&0x0f02	;#0x0010
    8366:	02 0f 
    8368:	fc 27       	jz	$-6      	;abs 0x8362
    836a:	7f d0 c0 ff 	bis.b	#-64,	r15	;#0xffc0
    836e:	c2 4f 13 0f 	mov.b	r15,	&0x0f13	
    8372:	0f 43       	clr	r15		
    8374:	4d 4d       	mov.b	r13,	r13	
    8376:	0b 4d       	mov	r13,	r11	
    8378:	3b 53       	add	#-1,	r11	;r3 As==11
    837a:	0b 3c       	jmp	$+24     	;abs 0x8392
    837c:	b2 b0 80 00 	bit	#128,	&0x0f02	;#0x0080
    8380:	02 0f 
    8382:	fc 27       	jz	$-6      	;abs 0x837c
    8384:	5a 42 22 0f 	mov.b	&0x0f22,r10	
    8388:	0c 4e       	mov	r14,	r12	
    838a:	0c 5f       	add	r15,	r12	
    838c:	cc 4a 00 00 	mov.b	r10,	0(r12)	;0x0000(r12)
    8390:	1f 53       	inc	r15		
    8392:	0f 9b       	cmp	r11,	r15	
    8394:	f3 2b       	jnc	$-24     	;abs 0x837c
    8396:	5f 42 20 0f 	mov.b	&0x0f20,r15	
    839a:	0e 5d       	add	r13,	r14	
    839c:	ce 4f ff ff 	mov.b	r15,	-1(r14)	;0xffff(r14)
    83a0:	1a 17       	popm	#2,	r11	
    83a2:	30 41       	ret			

000083a4 <WriteBurstReg>:
    83a4:	b2 b0 10 00 	bit	#16,	&0x0f02	;#0x0010
    83a8:	02 0f 
    83aa:	fc 27       	jz	$-6      	;abs 0x83a4
    83ac:	7f d0 40 00 	bis.b	#64,	r15	;#0x0040
    83b0:	4f 4f       	mov.b	r15,	r15	
    83b2:	8f 10       	swpb	r15		
    83b4:	6c 4e       	mov.b	@r14,	r12	
    83b6:	0f 5c       	add	r12,	r15	
    83b8:	82 4f 10 0f 	mov	r15,	&0x0f10	
    83bc:	5f 43       	mov.b	#1,	r15	;r3 As==01
    83be:	09 3c       	jmp	$+20     	;abs 0x83d2
    83c0:	d2 4e 01 00 	mov.b	1(r14),	&0x0f10	;0x0001(r14)
    83c4:	10 0f 
    83c6:	b2 b0 20 00 	bit	#32,	&0x0f02	;#0x0020
    83ca:	02 0f 
    83cc:	fc 27       	jz	$-6      	;abs 0x83c6
    83ce:	5f 53       	inc.b	r15		
    83d0:	1e 53       	inc	r14		
    83d2:	4f 9d       	cmp.b	r13,	r15	
    83d4:	f5 2b       	jnc	$-20     	;abs 0x83c0
    83d6:	5f 42 20 0f 	mov.b	&0x0f20,r15	
    83da:	30 41       	ret			

000083dc <ResetRadioCore>:
    83dc:	7f 40 30 00 	mov.b	#48,	r15	;#0x0030
    83e0:	b0 12 d0 82 	call	#0x82d0	
    83e4:	7f 40 3d 00 	mov.b	#61,	r15	;#0x003d
    83e8:	b0 12 d0 82 	call	#0x82d0	
    83ec:	30 41       	ret			

000083ee <WriteRfSettings>:
    83ee:	0b 12       	push	r11		
    83f0:	0b 4f       	mov	r15,	r11	
    83f2:	6e 4f       	mov.b	@r15,	r14	
    83f4:	7f 40 0b 00 	mov.b	#11,	r15	;#0x000b
    83f8:	b0 12 b8 82 	call	#0x82b8	
    83fc:	5e 4b 01 00 	mov.b	1(r11),	r14	;0x0001(r11)
    8400:	7f 40 0c 00 	mov.b	#12,	r15	;#0x000c
    8404:	b0 12 b8 82 	call	#0x82b8	
    8408:	5e 4b 02 00 	mov.b	2(r11),	r14	;0x0002(r11)
    840c:	7f 40 0d 00 	mov.b	#13,	r15	;#0x000d
    8410:	b0 12 b8 82 	call	#0x82b8	
    8414:	5e 4b 03 00 	mov.b	3(r11),	r14	;0x0003(r11)
    8418:	7f 40 0e 00 	mov.b	#14,	r15	;#0x000e
    841c:	b0 12 b8 82 	call	#0x82b8	
    8420:	5e 4b 04 00 	mov.b	4(r11),	r14	;0x0004(r11)
    8424:	7f 40 0f 00 	mov.b	#15,	r15	;#0x000f
    8428:	b0 12 b8 82 	call	#0x82b8	
    842c:	5e 4b 05 00 	mov.b	5(r11),	r14	;0x0005(r11)
    8430:	7f 40 10 00 	mov.b	#16,	r15	;#0x0010
    8434:	b0 12 b8 82 	call	#0x82b8	
    8438:	5e 4b 06 00 	mov.b	6(r11),	r14	;0x0006(r11)
    843c:	7f 40 11 00 	mov.b	#17,	r15	;#0x0011
    8440:	b0 12 b8 82 	call	#0x82b8	
    8444:	5e 4b 07 00 	mov.b	7(r11),	r14	;0x0007(r11)
    8448:	7f 40 12 00 	mov.b	#18,	r15	;#0x0012
    844c:	b0 12 b8 82 	call	#0x82b8	
    8450:	5e 4b 08 00 	mov.b	8(r11),	r14	;0x0008(r11)
    8454:	7f 40 13 00 	mov.b	#19,	r15	;#0x0013
    8458:	b0 12 b8 82 	call	#0x82b8	
    845c:	5e 4b 09 00 	mov.b	9(r11),	r14	;0x0009(r11)
    8460:	7f 40 14 00 	mov.b	#20,	r15	;#0x0014
    8464:	b0 12 b8 82 	call	#0x82b8	
    8468:	5e 4b 0a 00 	mov.b	10(r11),r14	;0x000a(r11)
    846c:	7f 40 0a 00 	mov.b	#10,	r15	;#0x000a
    8470:	b0 12 b8 82 	call	#0x82b8	
    8474:	5e 4b 0b 00 	mov.b	11(r11),r14	;0x000b(r11)
    8478:	7f 40 15 00 	mov.b	#21,	r15	;#0x0015
    847c:	b0 12 b8 82 	call	#0x82b8	
    8480:	5e 4b 0c 00 	mov.b	12(r11),r14	;0x000c(r11)
    8484:	7f 40 21 00 	mov.b	#33,	r15	;#0x0021
    8488:	b0 12 b8 82 	call	#0x82b8	
    848c:	5e 4b 0d 00 	mov.b	13(r11),r14	;0x000d(r11)
    8490:	7f 40 22 00 	mov.b	#34,	r15	;#0x0022
    8494:	b0 12 b8 82 	call	#0x82b8	
    8498:	5e 4b 0e 00 	mov.b	14(r11),r14	;0x000e(r11)
    849c:	7f 40 18 00 	mov.b	#24,	r15	;#0x0018
    84a0:	b0 12 b8 82 	call	#0x82b8	
    84a4:	5e 4b 0f 00 	mov.b	15(r11),r14	;0x000f(r11)
    84a8:	7f 40 19 00 	mov.b	#25,	r15	;#0x0019
    84ac:	b0 12 b8 82 	call	#0x82b8	
    84b0:	5e 4b 10 00 	mov.b	16(r11),r14	;0x0010(r11)
    84b4:	7f 40 1a 00 	mov.b	#26,	r15	;#0x001a
    84b8:	b0 12 b8 82 	call	#0x82b8	
    84bc:	5e 4b 11 00 	mov.b	17(r11),r14	;0x0011(r11)
    84c0:	7f 40 1b 00 	mov.b	#27,	r15	;#0x001b
    84c4:	b0 12 b8 82 	call	#0x82b8	
    84c8:	5e 4b 12 00 	mov.b	18(r11),r14	;0x0012(r11)
    84cc:	7f 40 1c 00 	mov.b	#28,	r15	;#0x001c
    84d0:	b0 12 b8 82 	call	#0x82b8	
    84d4:	5e 4b 13 00 	mov.b	19(r11),r14	;0x0013(r11)
    84d8:	7f 40 1d 00 	mov.b	#29,	r15	;#0x001d
    84dc:	b0 12 b8 82 	call	#0x82b8	
    84e0:	5e 4b 14 00 	mov.b	20(r11),r14	;0x0014(r11)
    84e4:	7f 40 23 00 	mov.b	#35,	r15	;#0x0023
    84e8:	b0 12 b8 82 	call	#0x82b8	
    84ec:	5e 4b 15 00 	mov.b	21(r11),r14	;0x0015(r11)
    84f0:	7f 40 24 00 	mov.b	#36,	r15	;#0x0024
    84f4:	b0 12 b8 82 	call	#0x82b8	
    84f8:	5e 4b 16 00 	mov.b	22(r11),r14	;0x0016(r11)
    84fc:	7f 40 25 00 	mov.b	#37,	r15	;#0x0025
    8500:	b0 12 b8 82 	call	#0x82b8	
    8504:	5e 4b 17 00 	mov.b	23(r11),r14	;0x0017(r11)
    8508:	7f 40 26 00 	mov.b	#38,	r15	;#0x0026
    850c:	b0 12 b8 82 	call	#0x82b8	
    8510:	5e 4b 18 00 	mov.b	24(r11),r14	;0x0018(r11)
    8514:	7f 40 29 00 	mov.b	#41,	r15	;#0x0029
    8518:	b0 12 b8 82 	call	#0x82b8	
    851c:	5e 4b 19 00 	mov.b	25(r11),r14	;0x0019(r11)
    8520:	7f 40 2c 00 	mov.b	#44,	r15	;#0x002c
    8524:	b0 12 b8 82 	call	#0x82b8	
    8528:	5e 4b 1a 00 	mov.b	26(r11),r14	;0x001a(r11)
    852c:	7f 40 2d 00 	mov.b	#45,	r15	;#0x002d
    8530:	b0 12 b8 82 	call	#0x82b8	
    8534:	5e 4b 1b 00 	mov.b	27(r11),r14	;0x001b(r11)
    8538:	7f 40 2e 00 	mov.b	#46,	r15	;#0x002e
    853c:	b0 12 b8 82 	call	#0x82b8	
    8540:	5e 4b 1c 00 	mov.b	28(r11),r14	;0x001c(r11)
    8544:	7f 40 03 00 	mov.b	#3,	r15	;#0x0003
    8548:	b0 12 b8 82 	call	#0x82b8	
    854c:	5e 4b 1d 00 	mov.b	29(r11),r14	;0x001d(r11)
    8550:	4f 43       	clr.b	r15		
    8552:	b0 12 b8 82 	call	#0x82b8	
    8556:	5e 4b 1e 00 	mov.b	30(r11),r14	;0x001e(r11)
    855a:	6f 43       	mov.b	#2,	r15	;r3 As==10
    855c:	b0 12 b8 82 	call	#0x82b8	
    8560:	5e 4b 1f 00 	mov.b	31(r11),r14	;0x001f(r11)
    8564:	7f 40 07 00 	mov.b	#7,	r15	;#0x0007
    8568:	b0 12 b8 82 	call	#0x82b8	
    856c:	5e 4b 20 00 	mov.b	32(r11),r14	;0x0020(r11)
    8570:	7f 42       	mov.b	#8,	r15	;r2 As==11
    8572:	b0 12 b8 82 	call	#0x82b8	
    8576:	5e 4b 21 00 	mov.b	33(r11),r14	;0x0021(r11)
    857a:	7f 40 09 00 	mov.b	#9,	r15	;#0x0009
    857e:	b0 12 b8 82 	call	#0x82b8	
    8582:	5e 4b 22 00 	mov.b	34(r11),r14	;0x0022(r11)
    8586:	7f 40 06 00 	mov.b	#6,	r15	;#0x0006
    858a:	b0 12 b8 82 	call	#0x82b8	
    858e:	7e 40 d3 ff 	mov.b	#-45,	r14	;#0xffd3
    8592:	6f 42       	mov.b	#4,	r15	;r2 As==10
    8594:	b0 12 b8 82 	call	#0x82b8	
    8598:	7e 40 91 ff 	mov.b	#-111,	r14	;#0xff91
    859c:	7f 40 05 00 	mov.b	#5,	r15	;#0x0005
    85a0:	b0 12 b8 82 	call	#0x82b8	
    85a4:	3b 41       	pop	r11		
    85a6:	30 41       	ret			

000085a8 <WriteSinglePATable>:
    85a8:	b2 b0 10 00 	bit	#16,	&0x0f02	;#0x0010
    85ac:	02 0f 
    85ae:	fc 27       	jz	$-6      	;abs 0x85a8
    85b0:	4f 4f       	mov.b	r15,	r15	
    85b2:	3f 50 00 3e 	add	#15872,	r15	;#0x3e00
    85b6:	82 4f 10 0f 	mov	r15,	&0x0f10	
    85ba:	b2 b0 10 00 	bit	#16,	&0x0f02	;#0x0010
    85be:	02 0f 
    85c0:	fc 27       	jz	$-6      	;abs 0x85ba
    85c2:	f2 40 3d 00 	mov.b	#61,	&0x0f11	;#0x003d
    85c6:	11 0f 
    85c8:	30 41       	ret			

000085ca <WriteBurstPATable>:
    85ca:	21 83       	decd	r1		
    85cc:	c1 43 00 00 	mov.b	#0,	0(r1)	;r3 As==00, 0x0000(r1)
    85d0:	b2 b0 10 00 	bit	#16,	&0x0f02	;#0x0010
    85d4:	02 0f 
    85d6:	fc 27       	jz	$-6      	;abs 0x85d0
    85d8:	6d 41       	mov.b	@r1,	r13	
    85da:	8d 11       	sxt	r13		
    85dc:	0d 5f       	add	r15,	r13	
    85de:	6d 4d       	mov.b	@r13,	r13	
    85e0:	3d 50 00 7e 	add	#32256,	r13	;#0x7e00
    85e4:	82 4d 10 0f 	mov	r13,	&0x0f10	
    85e8:	d1 43 00 00 	mov.b	#1,	0(r1)	;r3 As==01, 0x0000(r1)
    85ec:	4e 4e       	mov.b	r14,	r14	
    85ee:	0b 3c       	jmp	$+24     	;abs 0x8606
    85f0:	6d 41       	mov.b	@r1,	r13	
    85f2:	8d 11       	sxt	r13		
    85f4:	0d 5f       	add	r15,	r13	
    85f6:	e2 4d 10 0f 	mov.b	@r13,	&0x0f10	
    85fa:	b2 b0 20 00 	bit	#32,	&0x0f02	;#0x0020
    85fe:	02 0f 
    8600:	fc 27       	jz	$-6      	;abs 0x85fa
    8602:	d1 53 00 00 	inc.b	0(r1)		;0x0000(r1)
    8606:	6d 41       	mov.b	@r1,	r13	
    8608:	8d 11       	sxt	r13		
    860a:	0d 9e       	cmp	r14,	r13	
    860c:	f1 3b       	jl	$-28     	;abs 0x85f0
    860e:	d1 42 20 0f 	mov.b	&0x0f20,0(r1)	;0x0000(r1)
    8612:	00 00 
    8614:	b2 b0 10 00 	bit	#16,	&0x0f02	;#0x0010
    8618:	02 0f 
    861a:	fc 27       	jz	$-6      	;abs 0x8614
    861c:	f2 40 3d 00 	mov.b	#61,	&0x0f11	;#0x003d
    8620:	11 0f 
    8622:	21 53       	incd	r1		
    8624:	30 41       	ret			

00008626 <delayms>:
    8626:	30 41       	ret			

00008628 <InitButtonLeds>:
    8628:	92 43 22 03 	mov	#1,	&0x0322	;r3 As==01
    862c:	b2 40 ff 00 	mov	#255,	&0x0324	;#0x00ff
    8630:	24 03 
    8632:	b2 f0 fe ff 	and	#-2,	&0x0324	;#0xfffe
    8636:	24 03 
    8638:	92 d3 26 03 	bis	#1,	&0x0326	;r3 As==01
    863c:	f2 f0 3f 00 	and.b	#63,	&0x0203	;#0x003f
    8640:	03 02 
    8642:	f2 d0 c0 ff 	bis.b	#-64,	&0x0205	;#0xffc0
    8646:	05 02 
    8648:	30 41       	ret			

0000864a <InitRadio>:
    864a:	f2 40 a5 ff 	mov.b	#-91,	&0x0121	;#0xffa5
    864e:	21 01 
    8650:	f2 d0 80 ff 	bis.b	#-128,	&0x0120	;#0xff80
    8654:	20 01 
    8656:	c2 43 21 01 	mov.b	#0,	&0x0121	;r3 As==00
    865a:	3f 40 00 1c 	mov	#7168,	r15	;#0x1c00
    865e:	b0 12 ee 83 	call	#0x83ee	
    8662:	7f 40 50 00 	mov.b	#80,	r15	;#0x0050
    8666:	b0 12 a8 85 	call	#0x85a8	
    866a:	30 41       	ret			

0000866c <Transmit>:
    866c:	b2 d0 00 02 	bis	#512,	&0x0f34	;#0x0200
    8670:	34 0f 
    8672:	b2 f0 ff fd 	and	#-513,	&0x0f32	;#0xfdff
    8676:	32 0f 
    8678:	b2 d0 00 02 	bis	#512,	&0x0f36	;#0x0200
    867c:	36 0f 
    867e:	4d 4e       	mov.b	r14,	r13	
    8680:	0e 4f       	mov	r15,	r14	
    8682:	7f 40 7f 00 	mov.b	#127,	r15	;#0x007f
    8686:	b0 12 a4 83 	call	#0x83a4	
    868a:	7f 40 35 00 	mov.b	#53,	r15	;#0x0035
    868e:	b0 12 d0 82 	call	#0x82d0	
    8692:	30 41       	ret			

00008694 <ReceiveOn>:
    8694:	b2 d0 00 02 	bis	#512,	&0x0f34	;#0x0200
    8698:	34 0f 
    869a:	b2 f0 ff fd 	and	#-513,	&0x0f32	;#0xfdff
    869e:	32 0f 
    86a0:	b2 d0 00 02 	bis	#512,	&0x0f36	;#0x0200
    86a4:	36 0f 
    86a6:	7f 40 34 00 	mov.b	#52,	r15	;#0x0034
    86aa:	b0 12 d0 82 	call	#0x82d0	
    86ae:	30 41       	ret			

000086b0 <ReceiveOff>:
    86b0:	b2 f0 ff fd 	and	#-513,	&0x0f36	;#0xfdff
    86b4:	36 0f 
    86b6:	b2 f0 ff fd 	and	#-513,	&0x0f32	;#0xfdff
    86ba:	32 0f 
    86bc:	7f 40 36 00 	mov.b	#54,	r15	;#0x0036
    86c0:	b0 12 d0 82 	call	#0x82d0	
    86c4:	7f 40 3a 00 	mov.b	#58,	r15	;#0x003a
    86c8:	b0 12 d0 82 	call	#0x82d0	
    86cc:	30 41       	ret			

000086ce <InitUart>:
    86ce:	b2 40 52 2d 	mov	#11602,	&0x01c0	;#0x2d52
    86d2:	c0 01 
    86d4:	f2 40 11 00 	mov.b	#17,	&0x01cd	;#0x0011
    86d8:	cd 01 
    86da:	f2 40 12 00 	mov.b	#18,	&0x01ce	;#0x0012
    86de:	ce 01 
    86e0:	82 43 c0 01 	mov	#0,	&0x01c0	;r3 As==00
    86e4:	f2 d0 20 00 	bis.b	#32,	&0x0204	;#0x0020
    86e8:	04 02 
    86ea:	f2 d0 60 00 	bis.b	#96,	&0x020a	;#0x0060
    86ee:	0a 02 
    86f0:	d2 d3 c0 05 	bis.b	#1,	&0x05c0	;r3 As==01
    86f4:	f2 d0 40 00 	bis.b	#64,	&0x05c0	;#0x0040
    86f8:	c0 05 
    86fa:	f2 40 0d 00 	mov.b	#13,	&0x05c6	;#0x000d
    86fe:	c6 05 
    8700:	c2 43 c7 05 	mov.b	#0,	&0x05c7	;r3 As==00
    8704:	f2 d0 0c 00 	bis.b	#12,	&0x05c8	;#0x000c
    8708:	c8 05 
    870a:	f2 f0 fe ff 	and.b	#-2,	&0x05c0	;#0xfffe
    870e:	c0 05 
    8710:	d2 d3 dc 05 	bis.b	#1,	&0x05dc	;r3 As==01
    8714:	30 41       	ret			

00008716 <putchar>:
    8716:	5e 42 dd 05 	mov.b	&0x05dd,r14	
    871a:	2e f3       	and	#2,	r14	;r3 As==10
    871c:	fc 27       	jz	$-6      	;abs 0x8716
    871e:	c2 4f ce 05 	mov.b	r15,	&0x05ce	
    8722:	1f 43       	mov	#1,	r15	;r3 As==01
    8724:	30 41       	ret			

00008726 <getchar>:
    8726:	5f 42 dd 05 	mov.b	&0x05dd,r15	
    872a:	1f f3       	and	#1,	r15	;r3 As==01
    872c:	fc 27       	jz	$-6      	;abs 0x8726
    872e:	5f 42 cc 05 	mov.b	&0x05cc,r15	
    8732:	8f 11       	sxt	r15		
    8734:	30 41       	ret			

00008736 <uart_put_char>:
    8736:	5e 42 dd 05 	mov.b	&0x05dd,r14	
    873a:	2e f3       	and	#2,	r14	;r3 As==10
    873c:	fc 27       	jz	$-6      	;abs 0x8736
    873e:	c2 4f ce 05 	mov.b	r15,	&0x05ce	
    8742:	30 41       	ret			

00008744 <uart_write>:
    8744:	2b 15       	pushm	#3,	r11	
    8746:	09 4f       	mov	r15,	r9	
    8748:	0a 4e       	mov	r14,	r10	
    874a:	0b 43       	clr	r11		
    874c:	06 3c       	jmp	$+14     	;abs 0x875a
    874e:	0d 49       	mov	r9,	r13	
    8750:	0d 5b       	add	r11,	r13	
    8752:	6f 4d       	mov.b	@r13,	r15	
    8754:	b0 12 36 87 	call	#0x8736	
    8758:	1b 53       	inc	r11		
    875a:	0b 9a       	cmp	r10,	r11	
    875c:	f8 23       	jnz	$-14     	;abs 0x874e
    875e:	29 17       	popm	#3,	r11	
    8760:	30 41       	ret			

00008762 <uart_write_escaped>:
    8762:	2b 15       	pushm	#3,	r11	
    8764:	0b 4f       	mov	r15,	r11	
    8766:	09 4e       	mov	r14,	r9	
    8768:	7f 40 7e 00 	mov.b	#126,	r15	;#0x007e
    876c:	b0 12 36 87 	call	#0x8736	
    8770:	0a 43       	clr	r10		
    8772:	11 3c       	jmp	$+36     	;abs 0x8796
    8774:	6f 4b       	mov.b	@r11,	r15	
    8776:	4e 4f       	mov.b	r15,	r14	
    8778:	7e 50 83 ff 	add.b	#-125,	r14	;#0xff83
    877c:	6e 93       	cmp.b	#2,	r14	;r3 As==10
    877e:	07 2c       	jc	$+16     	;abs 0x878e
    8780:	7f 40 7d 00 	mov.b	#125,	r15	;#0x007d
    8784:	b0 12 36 87 	call	#0x8736	
    8788:	6f 4b       	mov.b	@r11,	r15	
    878a:	7f e0 20 00 	xor.b	#32,	r15	;#0x0020
    878e:	b0 12 36 87 	call	#0x8736	
    8792:	1a 53       	inc	r10		
    8794:	1b 53       	inc	r11		
    8796:	0a 99       	cmp	r9,	r10	
    8798:	ed 23       	jnz	$-36     	;abs 0x8774
    879a:	7f 40 7e 00 	mov.b	#126,	r15	;#0x007e
    879e:	b0 12 36 87 	call	#0x8736	
    87a2:	29 17       	popm	#3,	r11	
    87a4:	30 41       	ret			

000087a6 <RF_ReadSingleReg>:
    87a6:	7f 90 2f 00 	cmp.b	#47,	r15	;#0x002f
    87aa:	03 28       	jnc	$+8      	;abs 0x87b2
    87ac:	7f 90 3e 00 	cmp.b	#62,	r15	;#0x003e
    87b0:	03 20       	jnz	$+8      	;abs 0x87b8
    87b2:	7f d0 80 ff 	bis.b	#-128,	r15	;#0xff80
    87b6:	02 3c       	jmp	$+6      	;abs 0x87bc
    87b8:	7f d0 c0 ff 	bis.b	#-64,	r15	;#0xffc0
    87bc:	c2 4f 13 0f 	mov.b	r15,	&0x0f13	
    87c0:	b2 b0 80 00 	bit	#128,	&0x0f02	;#0x0080
    87c4:	02 0f 
    87c6:	fc 27       	jz	$-6      	;abs 0x87c0
    87c8:	5f 42 20 0f 	mov.b	&0x0f20,r15	
    87cc:	30 41       	ret			

000087ce <RF_GetRSSI>:
    87ce:	7f 40 34 00 	mov.b	#52,	r15	;#0x0034
    87d2:	b0 12 a6 87 	call	#0x87a6	
    87d6:	30 41       	ret			

000087d8 <radio_rssi>:
    87d8:	b0 12 ce 87 	call	#0x87ce	
    87dc:	8f 11       	sxt	r15		
    87de:	3f 50 80 00 	add	#128,	r15	;#0x0080
    87e2:	5f 01       	rram	#1,	r15	
    87e4:	3f 50 76 ff 	add	#-138,	r15	;#0xff76
    87e8:	30 41       	ret			

000087ea <CC1101_ISR>:
    87ea:	3f 15       	pushm	#4,	r15	
    87ec:	1f 42 38 0f 	mov	&0x0f38,r15	
    87f0:	3f 90 14 00 	cmp	#20,	r15	;#0x0014
    87f4:	38 20       	jnz	$+114    	;abs 0x8866
    87f6:	c2 93 2c 1c 	tst.b	&0x1c2c	
    87fa:	24 24       	jz	$+74     	;abs 0x8844
    87fc:	7f 40 3b 00 	mov.b	#59,	r15	;#0x003b
    8800:	b0 12 90 82 	call	#0x8290	
    8804:	c2 4f 34 1c 	mov.b	r15,	&0x1c34	
    8808:	4d 4f       	mov.b	r15,	r13	
    880a:	3e 40 38 1c 	mov	#7224,	r14	;#0x1c38
    880e:	7f 43       	mov.b	#-1,	r15	;r3 As==11
    8810:	b0 12 60 83 	call	#0x8360	
    8814:	03 43       	nop			
    8816:	b0 12 d8 87 	call	#0x87d8	
    881a:	82 4f 78 1c 	mov	r15,	&0x1c78	
    881e:	c2 93 3f 1c 	tst.b	&0x1c3f	
    8822:	21 34       	jge	$+68     	;abs 0x8866
    8824:	f2 d0 80 ff 	bis.b	#-128,	&0x0203	;#0xff80
    8828:	03 02 
    882a:	0f 12       	push	r15		
    882c:	30 12 1c 92 	push	#-28132	;#0x921c
    8830:	b0 12 a2 88 	call	#0x88a2	
    8834:	21 52       	add	#4,	r1	;r2 As==10
    8836:	5f 42 03 02 	mov.b	&0x0203,r15	
    883a:	7f f0 7f 00 	and.b	#127,	r15	;#0x007f
    883e:	c2 4f 03 02 	mov.b	r15,	&0x0203	
    8842:	11 3c       	jmp	$+36     	;abs 0x8866
    8844:	c2 93 2e 1c 	tst.b	&0x1c2e	
    8848:	0d 24       	jz	$+28     	;abs 0x8864
    884a:	b2 f0 ff fd 	and	#-513,	&0x0f36	;#0xfdff
    884e:	36 0f 
    8850:	f2 f0 bf ff 	and.b	#-65,	&0x0203	;#0xffbf
    8854:	03 02 
    8856:	3f 40 3a 92 	mov	#-28102,r15	;#0x923a
    885a:	b0 12 d8 90 	call	#0x90d8	
    885e:	c2 43 2e 1c 	mov.b	#0,	&0x1c2e	;r3 As==00
    8862:	01 3c       	jmp	$+4      	;abs 0x8866
    8864:	ff 3f       	jmp	$+0      	;abs 0x8864
    8866:	b1 c0 d0 00 	bic	#208,	8(r1)	;#0x00d0, 0x0008(r1)
    886a:	08 00 
    886c:	3c 17       	popm	#4,	r15	
    886e:	00 13       	reti			

00008870 <USCI_A0_ISR>:
    8870:	0f 12       	push	r15		
    8872:	1f 42 de 05 	mov	&0x05de,r15	
    8876:	2f 93       	cmp	#2,	r15	;r3 As==10
    8878:	0a 20       	jnz	$+22     	;abs 0x888e
    887a:	5f 42 dd 05 	mov.b	&0x05dd,r15	
    887e:	2f f3       	and	#2,	r15	;r3 As==10
    8880:	fc 27       	jz	$-6      	;abs 0x887a
    8882:	d2 42 cc 05 	mov.b	&0x05cc,&0x05ce	
    8886:	ce 05 
    8888:	f2 40 61 00 	mov.b	#97,	&0x05ce	;#0x0061
    888c:	ce 05 
    888e:	3f 41       	pop	r15		
    8890:	00 13       	reti			

00008892 <WDT_ISR>:
    8892:	0f 12       	push	r15		
    8894:	d2 53 26 1c 	inc.b	&0x1c26	
    8898:	f2 d0 80 ff 	bis.b	#-128,	&0x0203	;#0xff80
    889c:	03 02 
    889e:	3f 41       	pop	r15		
    88a0:	00 13       	reti			

000088a2 <printf>:
    88a2:	0d 41       	mov	r1,	r13	
    88a4:	2d 53       	incd	r13		
    88a6:	3e 4d       	mov	@r13+,	r14	
    88a8:	3f 40 16 87 	mov	#-30954,r15	;#0x8716
    88ac:	b0 12 3c 8a 	call	#0x8a3c	
    88b0:	30 41       	ret			

000088b2 <vprintf>:
    88b2:	0d 4e       	mov	r14,	r13	
    88b4:	0e 4f       	mov	r15,	r14	
    88b6:	3f 40 16 87 	mov	#-30954,r15	;#0x8716
    88ba:	b0 12 3c 8a 	call	#0x8a3c	
    88be:	30 41       	ret			

000088c0 <print_field>:
    88c0:	7b 15       	pushm	#8,	r11	
    88c2:	31 82       	sub	#8,	r1	;r2 As==11
    88c4:	08 4f       	mov	r15,	r8	
    88c6:	81 4e 04 00 	mov	r14,	4(r1)	;0x0004(r1)
    88ca:	09 4d       	mov	r13,	r9	
    88cc:	1f 41 1a 00 	mov	26(r1),	r15	;0x001a(r1)
    88d0:	1d 41 1c 00 	mov	28(r1),	r13	;0x001c(r1)
    88d4:	4c 4d       	mov.b	r13,	r12	
    88d6:	04 4d       	mov	r13,	r4	
    88d8:	84 10       	swpb	r4		
    88da:	45 44       	mov.b	r4,	r5	
    88dc:	4e 4f       	mov.b	r15,	r14	
    88de:	7e b0 40 00 	bit.b	#64,	r14	;#0x0040
    88e2:	11 24       	jz	$+36     	;abs 0x8906
    88e4:	f1 40 30 00 	mov.b	#48,	0(r1)	;#0x0030, 0x0000(r1)
    88e8:	00 00 
    88ea:	0e 4f       	mov	r15,	r14	
    88ec:	8e 10       	swpb	r14		
    88ee:	5e f3       	and.b	#1,	r14	;r3 As==01
    88f0:	03 24       	jz	$+8      	;abs 0x88f8
    88f2:	7e 40 58 00 	mov.b	#88,	r14	;#0x0058
    88f6:	02 3c       	jmp	$+6      	;abs 0x88fc
    88f8:	7e 40 78 00 	mov.b	#120,	r14	;#0x0078
    88fc:	c1 4e 01 00 	mov.b	r14,	1(r1)	;0x0001(r1)
    8900:	0c 41       	mov	r1,	r12	
    8902:	2c 53       	incd	r12		
    8904:	0f 3c       	jmp	$+32     	;abs 0x8924
    8906:	7e f0 20 00 	and.b	#32,	r14	;#0x0020
    890a:	04 24       	jz	$+10     	;abs 0x8914
    890c:	f1 40 30 00 	mov.b	#48,	0(r1)	;#0x0030, 0x0000(r1)
    8910:	00 00 
    8912:	04 3c       	jmp	$+10     	;abs 0x891c
    8914:	4c 93       	tst.b	r12		
    8916:	05 24       	jz	$+12     	;abs 0x8922
    8918:	c1 4d 00 00 	mov.b	r13,	0(r1)	;0x0000(r1)
    891c:	0c 41       	mov	r1,	r12	
    891e:	1c 53       	inc	r12		
    8920:	01 3c       	jmp	$+4      	;abs 0x8924
    8922:	0c 41       	mov	r1,	r12	
    8924:	0a 4c       	mov	r12,	r10	
    8926:	8c 10       	swpb	r12		
    8928:	8c 11       	sxt	r12		
    892a:	8c 10       	swpb	r12		
    892c:	8c 11       	sxt	r12		
    892e:	0b 4c       	mov	r12,	r11	
    8930:	06 41       	mov	r1,	r6	
    8932:	0c 41       	mov	r1,	r12	
    8934:	8c 10       	swpb	r12		
    8936:	8c 11       	sxt	r12		
    8938:	8c 10       	swpb	r12		
    893a:	8c 11       	sxt	r12		
    893c:	07 4c       	mov	r12,	r7	
    893e:	0a 86       	sub	r6,	r10	
    8940:	0b 77       	subc	r7,	r11	
    8942:	0e 4f       	mov	r15,	r14	
    8944:	8e 10       	swpb	r14		
    8946:	c1 4e 02 00 	mov.b	r14,	2(r1)	;0x0002(r1)
    894a:	6e f2       	and.b	#4,	r14	;r2 As==10
    894c:	02 24       	jz	$+6      	;abs 0x8952
    894e:	07 45       	mov	r5,	r7	
    8950:	01 3c       	jmp	$+4      	;abs 0x8954
    8952:	37 43       	mov	#-1,	r7	;r3 As==11
    8954:	4f 4f       	mov.b	r15,	r15	
    8956:	7f b0 10 00 	bit.b	#16,	r15	;#0x0010
    895a:	3c 20       	jnz	$+122    	;abs 0x89d4
    895c:	1d 41 04 00 	mov	4(r1),	r13	;0x0004(r1)
    8960:	3d 53       	add	#-1,	r13	;r3 As==11
    8962:	1d 53       	inc	r13		
    8964:	cd 93 00 00 	tst.b	0(r13)		;0x0000(r13)
    8968:	fc 23       	jnz	$-6      	;abs 0x8962
    896a:	1d 81 04 00 	sub	4(r1),	r13	;0x0004(r1)
    896e:	09 9a       	cmp	r10,	r9	
    8970:	02 28       	jnc	$+6      	;abs 0x8976
    8972:	09 8a       	sub	r10,	r9	
    8974:	01 3c       	jmp	$+4      	;abs 0x8978
    8976:	09 43       	clr	r9		
    8978:	e1 b3 02 00 	bit.b	#2,	2(r1)	;r3 As==10, 0x0002(r1)
    897c:	05 24       	jz	$+12     	;abs 0x8988
    897e:	09 95       	cmp	r5,	r9	
    8980:	02 28       	jnc	$+6      	;abs 0x8986
    8982:	09 85       	sub	r5,	r9	
    8984:	01 3c       	jmp	$+4      	;abs 0x8988
    8986:	09 43       	clr	r9		
    8988:	05 4d       	mov	r13,	r5	
    898a:	07 9d       	cmp	r13,	r7	
    898c:	01 2c       	jc	$+4      	;abs 0x8990
    898e:	05 47       	mov	r7,	r5	
    8990:	4f 93       	tst.b	r15		
    8992:	0d 38       	jl	$+28     	;abs 0x89ae
    8994:	f1 40 20 00 	mov.b	#32,	6(r1)	;#0x0020, 0x0006(r1)
    8998:	06 00 
    899a:	06 43       	clr	r6		
    899c:	0b 43       	clr	r11		
    899e:	0e 3c       	jmp	$+30     	;abs 0x89bc
    89a0:	0f 41       	mov	r1,	r15	
    89a2:	0f 56       	add	r6,	r15	
    89a4:	6f 4f       	mov.b	@r15,	r15	
    89a6:	8f 11       	sxt	r15		
    89a8:	16 53       	inc	r6		
    89aa:	88 12       	call	r8		
    89ac:	01 3c       	jmp	$+4      	;abs 0x89b0
    89ae:	06 43       	clr	r6		
    89b0:	06 9a       	cmp	r10,	r6	
    89b2:	f6 3b       	jl	$-18     	;abs 0x89a0
    89b4:	0b 4a       	mov	r10,	r11	
    89b6:	f1 40 30 00 	mov.b	#48,	6(r1)	;#0x0030, 0x0006(r1)
    89ba:	06 00 
    89bc:	05 8b       	sub	r11,	r5	
    89be:	05 3c       	jmp	$+12     	;abs 0x89ca
    89c0:	5f 41 06 00 	mov.b	6(r1),	r15	;0x0006(r1)
    89c4:	8f 11       	sxt	r15		
    89c6:	88 12       	call	r8		
    89c8:	1b 53       	inc	r11		
    89ca:	0f 45       	mov	r5,	r15	
    89cc:	0f 5b       	add	r11,	r15	
    89ce:	0f 99       	cmp	r9,	r15	
    89d0:	f7 2b       	jnc	$-16     	;abs 0x89c0
    89d2:	0a 3c       	jmp	$+22     	;abs 0x89e8
    89d4:	06 43       	clr	r6		
    89d6:	0b 43       	clr	r11		
    89d8:	07 3c       	jmp	$+16     	;abs 0x89e8
    89da:	1b 53       	inc	r11		
    89dc:	0f 41       	mov	r1,	r15	
    89de:	0f 56       	add	r6,	r15	
    89e0:	6f 4f       	mov.b	@r15,	r15	
    89e2:	8f 11       	sxt	r15		
    89e4:	16 53       	inc	r6		
    89e6:	88 12       	call	r8		
    89e8:	06 9a       	cmp	r10,	r6	
    89ea:	f7 3b       	jl	$-16     	;abs 0x89da
    89ec:	e1 b3 02 00 	bit.b	#2,	2(r1)	;r3 As==10, 0x0002(r1)
    89f0:	02 24       	jz	$+6      	;abs 0x89f6
    89f2:	4a 44       	mov.b	r4,	r10	
    89f4:	08 3c       	jmp	$+18     	;abs 0x8a06
    89f6:	1a 41 04 00 	mov	4(r1),	r10	;0x0004(r1)
    89fa:	0a 8b       	sub	r11,	r10	
    89fc:	0d 3c       	jmp	$+28     	;abs 0x8a18
    89fe:	3f 40 30 00 	mov	#48,	r15	;#0x0030
    8a02:	88 12       	call	r8		
    8a04:	7a 53       	add.b	#-1,	r10	;r3 As==11
    8a06:	4a 93       	tst.b	r10		
    8a08:	fa 23       	jnz	$-10     	;abs 0x89fe
    8a0a:	44 44       	mov.b	r4,	r4	
    8a0c:	0b 54       	add	r4,	r11	
    8a0e:	f3 3f       	jmp	$-24     	;abs 0x89f6
    8a10:	37 53       	add	#-1,	r7	;r3 As==11
    8a12:	8f 11       	sxt	r15		
    8a14:	88 12       	call	r8		
    8a16:	1b 53       	inc	r11		
    8a18:	0f 4a       	mov	r10,	r15	
    8a1a:	0f 5b       	add	r11,	r15	
    8a1c:	6f 4f       	mov.b	@r15,	r15	
    8a1e:	4f 93       	tst.b	r15		
    8a20:	07 24       	jz	$+16     	;abs 0x8a30
    8a22:	07 93       	tst	r7		
    8a24:	f5 23       	jnz	$-20     	;abs 0x8a10
    8a26:	04 3c       	jmp	$+10     	;abs 0x8a30
    8a28:	3f 40 20 00 	mov	#32,	r15	;#0x0020
    8a2c:	88 12       	call	r8		
    8a2e:	1b 53       	inc	r11		
    8a30:	0b 99       	cmp	r9,	r11	
    8a32:	fa 2b       	jnc	$-10     	;abs 0x8a28
    8a34:	0f 4b       	mov	r11,	r15	
    8a36:	31 52       	add	#8,	r1	;r2 As==11
    8a38:	74 17       	popm	#8,	r11	
    8a3a:	30 41       	ret			

00008a3c <vuprintf>:
    8a3c:	7b 15       	pushm	#8,	r11	
    8a3e:	31 50 ac ff 	add	#-84,	r1	;#0xffac
    8a42:	81 4f 3a 00 	mov	r15,	58(r1)	;0x003a(r1)
    8a46:	81 4d 1e 00 	mov	r13,	30(r1)	;0x001e(r1)
    8a4a:	81 4e 40 00 	mov	r14,	64(r1)	;0x0040(r1)
    8a4e:	c1 43 2f 00 	mov.b	#0,	47(r1)	;r3 As==00, 0x002f(r1)
    8a52:	c1 43 2b 00 	mov.b	#0,	43(r1)	;r3 As==00, 0x002b(r1)
    8a56:	c1 43 2e 00 	mov.b	#0,	46(r1)	;r3 As==00, 0x002e(r1)
    8a5a:	c1 43 2a 00 	mov.b	#0,	42(r1)	;r3 As==00, 0x002a(r1)
    8a5e:	81 43 30 00 	mov	#0,	48(r1)	;r3 As==00, 0x0030(r1)
    8a62:	81 43 20 00 	mov	#0,	32(r1)	;r3 As==00, 0x0020(r1)
    8a66:	08 43       	clr	r8		
    8a68:	81 43 2c 00 	mov	#0,	44(r1)	;r3 As==00, 0x002c(r1)
    8a6c:	0f 41       	mov	r1,	r15	
    8a6e:	3f 50 1c 00 	add	#28,	r15	;#0x001c
    8a72:	81 4f 1c 00 	mov	r15,	28(r1)	;0x001c(r1)
    8a76:	0c 4e       	mov	r14,	r12	
    8a78:	14 41 22 00 	mov	34(r1),	r4	;0x0022(r1)
    8a7c:	15 41 24 00 	mov	36(r1),	r5	;0x0024(r1)
    8a80:	16 41 26 00 	mov	38(r1),	r6	;0x0026(r1)
    8a84:	17 41 28 00 	mov	40(r1),	r7	;0x0028(r1)
    8a88:	30 40 c2 90 	br	#0x90c2	
    8a8c:	0f 4c       	mov	r12,	r15	
    8a8e:	1f 53       	inc	r15		
    8a90:	81 4f 42 00 	mov	r15,	66(r1)	;0x0042(r1)
    8a94:	08 93       	tst	r8		
    8a96:	1f 20       	jnz	$+64     	;abs 0x8ad6
    8a98:	7e 90 25 00 	cmp.b	#37,	r14	;#0x0025
    8a9c:	14 20       	jnz	$+42     	;abs 0x8ac6
    8a9e:	81 43 00 00 	mov	#0,	0(r1)	;r3 As==00, 0x0000(r1)
    8aa2:	81 43 02 00 	mov	#0,	2(r1)	;r3 As==00, 0x0002(r1)
    8aa6:	81 4c 40 00 	mov	r12,	64(r1)	;0x0040(r1)
    8aaa:	c1 43 2f 00 	mov.b	#0,	47(r1)	;r3 As==00, 0x002f(r1)
    8aae:	c1 43 2b 00 	mov.b	#0,	43(r1)	;r3 As==00, 0x002b(r1)
    8ab2:	c1 43 2e 00 	mov.b	#0,	46(r1)	;r3 As==00, 0x002e(r1)
    8ab6:	c1 43 2a 00 	mov.b	#0,	42(r1)	;r3 As==00, 0x002a(r1)
    8aba:	81 43 30 00 	mov	#0,	48(r1)	;r3 As==00, 0x0030(r1)
    8abe:	30 40 b8 90 	br	#0x90b8	
    8ac2:	81 48 1e 00 	mov	r8,	30(r1)	;0x001e(r1)
    8ac6:	8e 11       	sxt	r14		
    8ac8:	0f 4e       	mov	r14,	r15	
    8aca:	91 12 3c 00 	call	60(r1)		;0x003c(r1)
    8ace:	91 53 2c 00 	inc	44(r1)		;0x002c(r1)
    8ad2:	30 40 9c 90 	br	#0x909c	
    8ad6:	7e 90 63 00 	cmp.b	#99,	r14	;#0x0063
    8ada:	cb 24       	jz	$+408    	;abs 0x8c72
    8adc:	7e 90 64 00 	cmp.b	#100,	r14	;#0x0064
    8ae0:	27 34       	jge	$+80     	;abs 0x8b30
    8ae2:	7e 90 30 00 	cmp.b	#48,	r14	;#0x0030
    8ae6:	9c 24       	jz	$+314    	;abs 0x8c20
    8ae8:	7e 90 31 00 	cmp.b	#49,	r14	;#0x0031
    8aec:	1a 34       	jge	$+54     	;abs 0x8b22
    8aee:	7e 90 2a 00 	cmp.b	#42,	r14	;#0x002a
    8af2:	7b 24       	jz	$+248    	;abs 0x8bea
    8af4:	7e 90 2b 00 	cmp.b	#43,	r14	;#0x002b
    8af8:	0a 34       	jge	$+22     	;abs 0x8b0e
    8afa:	7e 90 23 00 	cmp.b	#35,	r14	;#0x0023
    8afe:	42 24       	jz	$+134    	;abs 0x8b84
    8b00:	7e 90 25 00 	cmp.b	#37,	r14	;#0x0025
    8b04:	e0 27       	jz	$-62     	;abs 0x8ac6
    8b06:	7e 90 20 00 	cmp.b	#32,	r14	;#0x0020
    8b0a:	32 20       	jnz	$+102    	;abs 0x8b70
    8b0c:	5a 3c       	jmp	$+182    	;abs 0x8bc2
    8b0e:	7e 90 2d 00 	cmp.b	#45,	r14	;#0x002d
    8b12:	4d 24       	jz	$+156    	;abs 0x8bae
    8b14:	7e 90 2e 00 	cmp.b	#46,	r14	;#0x002e
    8b18:	5f 24       	jz	$+192    	;abs 0x8bd8
    8b1a:	7e 90 2b 00 	cmp.b	#43,	r14	;#0x002b
    8b1e:	28 20       	jnz	$+82     	;abs 0x8b70
    8b20:	4b 3c       	jmp	$+152    	;abs 0x8bb8
    8b22:	7e 90 3a 00 	cmp.b	#58,	r14	;#0x003a
    8b26:	94 38       	jl	$+298    	;abs 0x8c50
    8b28:	7e 90 58 00 	cmp.b	#88,	r14	;#0x0058
    8b2c:	21 20       	jnz	$+68     	;abs 0x8b70
    8b2e:	f8 3c       	jmp	$+498    	;abs 0x8d20
    8b30:	7e 90 6f 00 	cmp.b	#111,	r14	;#0x006f
    8b34:	24 24       	jz	$+74     	;abs 0x8b7e
    8b36:	7e 90 70 00 	cmp.b	#112,	r14	;#0x0070
    8b3a:	0a 34       	jge	$+22     	;abs 0x8b50
    8b3c:	7e 90 69 00 	cmp.b	#105,	r14	;#0x0069
    8b40:	f2 24       	jz	$+486    	;abs 0x8d26
    8b42:	7e 90 6c 00 	cmp.b	#108,	r14	;#0x006c
    8b46:	22 24       	jz	$+70     	;abs 0x8b8c
    8b48:	7e 90 64 00 	cmp.b	#100,	r14	;#0x0064
    8b4c:	11 20       	jnz	$+36     	;abs 0x8b70
    8b4e:	eb 3c       	jmp	$+472    	;abs 0x8d26
    8b50:	7e 90 73 00 	cmp.b	#115,	r14	;#0x0073
    8b54:	a1 24       	jz	$+324    	;abs 0x8c98
    8b56:	7e 90 74 00 	cmp.b	#116,	r14	;#0x0074
    8b5a:	04 34       	jge	$+10     	;abs 0x8b64
    8b5c:	7e 90 70 00 	cmp.b	#112,	r14	;#0x0070
    8b60:	07 20       	jnz	$+16     	;abs 0x8b70
    8b62:	c5 3c       	jmp	$+396    	;abs 0x8cee
    8b64:	7e 90 75 00 	cmp.b	#117,	r14	;#0x0075
    8b68:	e0 24       	jz	$+450    	;abs 0x8d2a
    8b6a:	7e 90 78 00 	cmp.b	#120,	r14	;#0x0078
    8b6e:	e1 24       	jz	$+452    	;abs 0x8d32
    8b70:	1a 41 40 00 	mov	64(r1),	r10	;0x0040(r1)
    8b74:	19 41 2c 00 	mov	44(r1),	r9	;0x002c(r1)
    8b78:	09 8a       	sub	r10,	r9	
    8b7a:	30 40 8a 90 	br	#0x908a	
    8b7e:	b1 42 22 00 	mov	#8,	34(r1)	;r2 As==11, 0x0022(r1)
    8b82:	da 3c       	jmp	$+438    	;abs 0x8d38
    8b84:	f1 d2 00 00 	bis.b	#8,	0(r1)	;r2 As==11, 0x0000(r1)
    8b88:	30 40 bc 90 	br	#0x90bc	
    8b8c:	6c 41       	mov.b	@r1,	r12	
    8b8e:	5c f3       	and.b	#1,	r12	;r3 As==01
    8b90:	69 41       	mov.b	@r1,	r9	
    8b92:	08 24       	jz	$+18     	;abs 0x8ba4
    8b94:	4e 49       	mov.b	r9,	r14	
    8b96:	7e f0 fe ff 	and.b	#-2,	r14	;#0xfffe
    8b9a:	6e d3       	bis.b	#2,	r14	;r3 As==10
    8b9c:	c1 4e 00 00 	mov.b	r14,	0(r1)	;0x0000(r1)
    8ba0:	30 40 bc 90 	br	#0x90bc	
    8ba4:	59 d3       	bis.b	#1,	r9	;r3 As==01
    8ba6:	c1 49 00 00 	mov.b	r9,	0(r1)	;0x0000(r1)
    8baa:	30 40 bc 90 	br	#0x90bc	
    8bae:	f1 d0 10 00 	bis.b	#16,	0(r1)	;#0x0010, 0x0000(r1)
    8bb2:	00 00 
    8bb4:	30 40 bc 90 	br	#0x90bc	
    8bb8:	f1 40 2b 00 	mov.b	#43,	2(r1)	;#0x002b, 0x0002(r1)
    8bbc:	02 00 
    8bbe:	30 40 bc 90 	br	#0x90bc	
    8bc2:	f1 90 2b 00 	cmp.b	#43,	2(r1)	;#0x002b, 0x0002(r1)
    8bc6:	02 00 
    8bc8:	02 20       	jnz	$+6      	;abs 0x8bce
    8bca:	30 40 bc 90 	br	#0x90bc	
    8bce:	f1 40 20 00 	mov.b	#32,	2(r1)	;#0x0020, 0x0002(r1)
    8bd2:	02 00 
    8bd4:	30 40 bc 90 	br	#0x90bc	
    8bd8:	c1 93 2a 00 	tst.b	42(r1)		;0x002a(r1)
    8bdc:	02 24       	jz	$+6      	;abs 0x8be2
    8bde:	30 40 a0 90 	br	#0x90a0	
    8be2:	d1 43 2e 00 	mov.b	#1,	46(r1)	;r3 As==01, 0x002e(r1)
    8be6:	30 40 bc 90 	br	#0x90bc	
    8bea:	1c 41 1e 00 	mov	30(r1),	r12	;0x001e(r1)
    8bee:	2c 53       	incd	r12		
    8bf0:	1f 41 1e 00 	mov	30(r1),	r15	;0x001e(r1)
    8bf4:	2e 4f       	mov	@r15,	r14	
    8bf6:	0e 93       	tst	r14		
    8bf8:	03 38       	jl	$+8      	;abs 0x8c00
    8bfa:	81 4e 20 00 	mov	r14,	32(r1)	;0x0020(r1)
    8bfe:	0d 3c       	jmp	$+28     	;abs 0x8c1a
    8c00:	c1 93 2e 00 	tst.b	46(r1)		;0x002e(r1)
    8c04:	02 24       	jz	$+6      	;abs 0x8c0a
    8c06:	30 40 b0 90 	br	#0x90b0	
    8c0a:	f1 d0 10 00 	bis.b	#16,	0(r1)	;#0x0010, 0x0000(r1)
    8c0e:	00 00 
    8c10:	3e e3       	inv	r14		
    8c12:	81 4e 20 00 	mov	r14,	32(r1)	;0x0020(r1)
    8c16:	91 53 20 00 	inc	32(r1)		;0x0020(r1)
    8c1a:	81 4c 1e 00 	mov	r12,	30(r1)	;0x001e(r1)
    8c1e:	25 3c       	jmp	$+76     	;abs 0x8c6a
    8c20:	81 93 20 00 	tst	32(r1)		;0x0020(r1)
    8c24:	15 20       	jnz	$+44     	;abs 0x8c50
    8c26:	c1 93 2e 00 	tst.b	46(r1)		;0x002e(r1)
    8c2a:	12 20       	jnz	$+38     	;abs 0x8c50
    8c2c:	6c 41       	mov.b	@r1,	r12	
    8c2e:	7c f0 10 00 	and.b	#16,	r12	;#0x0010
    8c32:	5e 43       	mov.b	#1,	r14	;r3 As==01
    8c34:	01 24       	jz	$+4      	;abs 0x8c38
    8c36:	4e 43       	clr.b	r14		
    8c38:	4e 4e       	mov.b	r14,	r14	
    8c3a:	0e 11       	rra	r14		
    8c3c:	0e 43       	clr	r14		
    8c3e:	4e 10       	rrc.b	r14		
    8c40:	6c 41       	mov.b	@r1,	r12	
    8c42:	7c f0 7f 00 	and.b	#127,	r12	;#0x007f
    8c46:	4c de       	bis.b	r14,	r12	
    8c48:	c1 4c 00 00 	mov.b	r12,	0(r1)	;0x0000(r1)
    8c4c:	30 40 bc 90 	br	#0x90bc	
    8c50:	1c 41 20 00 	mov	32(r1),	r12	;0x0020(r1)
    8c54:	5c 02       	rlam	#1,	r12	
    8c56:	1f 41 20 00 	mov	32(r1),	r15	;0x0020(r1)
    8c5a:	5f 0a       	rlam	#3,	r15	
    8c5c:	0f 5c       	add	r12,	r15	
    8c5e:	3f 50 d0 ff 	add	#-48,	r15	;#0xffd0
    8c62:	8e 11       	sxt	r14		
    8c64:	0f 5e       	add	r14,	r15	
    8c66:	81 4f 20 00 	mov	r15,	32(r1)	;0x0020(r1)
    8c6a:	d1 43 2a 00 	mov.b	#1,	42(r1)	;r3 As==01, 0x002a(r1)
    8c6e:	30 40 bc 90 	br	#0x90bc	
    8c72:	18 41 1e 00 	mov	30(r1),	r8	;0x001e(r1)
    8c76:	28 53       	incd	r8		
    8c78:	1f 41 1e 00 	mov	30(r1),	r15	;0x001e(r1)
    8c7c:	6e 4f       	mov.b	@r15,	r14	
    8c7e:	c1 93 2e 00 	tst.b	46(r1)		;0x002e(r1)
    8c82:	03 20       	jnz	$+8      	;abs 0x8c8a
    8c84:	c1 93 2a 00 	tst.b	42(r1)		;0x002a(r1)
    8c88:	1c 27       	jz	$-454    	;abs 0x8ac2
    8c8a:	c1 4e 04 00 	mov.b	r14,	4(r1)	;0x0004(r1)
    8c8e:	c1 43 05 00 	mov.b	#0,	5(r1)	;r3 As==00, 0x0005(r1)
    8c92:	0e 41       	mov	r1,	r14	
    8c94:	2e 52       	add	#4,	r14	;r2 As==10
    8c96:	06 3c       	jmp	$+14     	;abs 0x8ca4
    8c98:	18 41 1e 00 	mov	30(r1),	r8	;0x001e(r1)
    8c9c:	28 53       	incd	r8		
    8c9e:	1f 41 1e 00 	mov	30(r1),	r15	;0x001e(r1)
    8ca2:	2e 4f       	mov	@r15,	r14	
    8ca4:	c1 93 2e 00 	tst.b	46(r1)		;0x002e(r1)
    8ca8:	07 24       	jz	$+16     	;abs 0x8cb8
    8caa:	e1 d2 01 00 	bis.b	#4,	1(r1)	;r2 As==10, 0x0001(r1)
    8cae:	1f 41 20 00 	mov	32(r1),	r15	;0x0020(r1)
    8cb2:	c1 4f 03 00 	mov.b	r15,	3(r1)	;0x0003(r1)
    8cb6:	06 3c       	jmp	$+14     	;abs 0x8cc4
    8cb8:	c1 93 2a 00 	tst.b	42(r1)		;0x002a(r1)
    8cbc:	03 24       	jz	$+8      	;abs 0x8cc4
    8cbe:	91 41 20 00 	mov	32(r1),	48(r1)	;0x0020(r1), 0x0030(r1)
    8cc2:	30 00 
    8cc4:	0e 93       	tst	r14		
    8cc6:	02 20       	jnz	$+6      	;abs 0x8ccc
    8cc8:	3e 40 4d 92 	mov	#-28083,r14	;#0x924d
    8ccc:	11 12 04 00 	push	4(r1)		;0x0004(r1)
    8cd0:	11 12 04 00 	push	4(r1)		;0x0004(r1)
    8cd4:	1d 41 34 00 	mov	52(r1),	r13	;0x0034(r1)
    8cd8:	1f 41 3e 00 	mov	62(r1),	r15	;0x003e(r1)
    8cdc:	b0 12 c0 88 	call	#0x88c0	
    8ce0:	21 52       	add	#4,	r1	;r2 As==10
    8ce2:	81 5f 2c 00 	add	r15,	44(r1)	;0x002c(r1)
    8ce6:	81 48 1e 00 	mov	r8,	30(r1)	;0x001e(r1)
    8cea:	30 40 9c 90 	br	#0x909c	
    8cee:	18 41 1e 00 	mov	30(r1),	r8	;0x001e(r1)
    8cf2:	28 53       	incd	r8		
    8cf4:	1f 41 1e 00 	mov	30(r1),	r15	;0x001e(r1)
    8cf8:	2e 4f       	mov	@r15,	r14	
    8cfa:	04 4e       	mov	r14,	r4	
    8cfc:	5c 43       	mov.b	#1,	r12	;r3 As==01
    8cfe:	0e 93       	tst	r14		
    8d00:	01 20       	jnz	$+4      	;abs 0x8d04
    8d02:	4c 43       	clr.b	r12		
    8d04:	1c f3       	and	#1,	r12	;r3 As==01
    8d06:	5c 0a       	rlam	#3,	r12	
    8d08:	6e 41       	mov.b	@r1,	r14	
    8d0a:	7e f0 f7 ff 	and.b	#-9,	r14	;#0xfff7
    8d0e:	4e dc       	bis.b	r12,	r14	
    8d10:	c1 4e 00 00 	mov.b	r14,	0(r1)	;0x0000(r1)
    8d14:	81 48 1e 00 	mov	r8,	30(r1)	;0x001e(r1)
    8d18:	b1 40 10 00 	mov	#16,	34(r1)	;#0x0010, 0x0022(r1)
    8d1c:	22 00 
    8d1e:	56 3c       	jmp	$+174    	;abs 0x8dcc
    8d20:	d1 d3 01 00 	bis.b	#1,	1(r1)	;r3 As==01, 0x0001(r1)
    8d24:	06 3c       	jmp	$+14     	;abs 0x8d32
    8d26:	e1 d2 00 00 	bis.b	#4,	0(r1)	;r2 As==10, 0x0000(r1)
    8d2a:	b1 40 0a 00 	mov	#10,	34(r1)	;#0x000a, 0x0022(r1)
    8d2e:	22 00 
    8d30:	03 3c       	jmp	$+8      	;abs 0x8d38
    8d32:	b1 40 10 00 	mov	#16,	34(r1)	;#0x0010, 0x0022(r1)
    8d36:	22 00 
    8d38:	6b 41       	mov.b	@r1,	r11	
    8d3a:	6b b3       	bit.b	#2,	r11	;r3 As==10
    8d3c:	24 24       	jz	$+74     	;abs 0x8d86
    8d3e:	1e 41 1e 00 	mov	30(r1),	r14	;0x001e(r1)
    8d42:	3e 52       	add	#8,	r14	;r2 As==11
    8d44:	1f 41 1e 00 	mov	30(r1),	r15	;0x001e(r1)
    8d48:	29 4f       	mov	@r15,	r9	
    8d4a:	18 4f 02 00 	mov	2(r15),	r8	;0x0002(r15)
    8d4e:	1d 4f 04 00 	mov	4(r15),	r13	;0x0004(r15)
    8d52:	1b 4f 06 00 	mov	6(r15),	r11	;0x0006(r15)
    8d56:	04 49       	mov	r9,	r4	
    8d58:	05 48       	mov	r8,	r5	
    8d5a:	06 4d       	mov	r13,	r6	
    8d5c:	07 4b       	mov	r11,	r7	
    8d5e:	d1 43 2b 00 	mov.b	#1,	43(r1)	;r3 As==01, 0x002b(r1)
    8d62:	09 93       	tst	r9		
    8d64:	06 20       	jnz	$+14     	;abs 0x8d72
    8d66:	08 93       	tst	r8		
    8d68:	04 20       	jnz	$+10     	;abs 0x8d72
    8d6a:	0d 93       	tst	r13		
    8d6c:	02 20       	jnz	$+6      	;abs 0x8d72
    8d6e:	0b 93       	tst	r11		
    8d70:	02 24       	jz	$+6      	;abs 0x8d76
    8d72:	c1 43 2b 00 	mov.b	#0,	43(r1)	;r3 As==00, 0x002b(r1)
    8d76:	0b 5b       	rla	r11		
    8d78:	0b 43       	clr	r11		
    8d7a:	0b 6b       	rlc	r11		
    8d7c:	c1 4b 2f 00 	mov.b	r11,	47(r1)	;0x002f(r1)
    8d80:	81 4e 1e 00 	mov	r14,	30(r1)	;0x001e(r1)
    8d84:	23 3c       	jmp	$+72     	;abs 0x8dcc
    8d86:	5b f3       	and.b	#1,	r11	;r3 As==01
    8d88:	18 41 1e 00 	mov	30(r1),	r8	;0x001e(r1)
    8d8c:	0d 24       	jz	$+28     	;abs 0x8da8
    8d8e:	28 52       	add	#4,	r8	;r2 As==10
    8d90:	1f 41 1e 00 	mov	30(r1),	r15	;0x001e(r1)
    8d94:	29 4f       	mov	@r15,	r9	
    8d96:	1b 4f 02 00 	mov	2(r15),	r11	;0x0002(r15)
    8d9a:	04 49       	mov	r9,	r4	
    8d9c:	05 4b       	mov	r11,	r5	
    8d9e:	d1 43 2b 00 	mov.b	#1,	43(r1)	;r3 As==01, 0x002b(r1)
    8da2:	09 93       	tst	r9		
    8da4:	0a 20       	jnz	$+22     	;abs 0x8dba
    8da6:	07 3c       	jmp	$+16     	;abs 0x8db6
    8da8:	28 53       	incd	r8		
    8daa:	1f 41 1e 00 	mov	30(r1),	r15	;0x001e(r1)
    8dae:	2b 4f       	mov	@r15,	r11	
    8db0:	04 4b       	mov	r11,	r4	
    8db2:	d1 43 2b 00 	mov.b	#1,	43(r1)	;r3 As==01, 0x002b(r1)
    8db6:	0b 93       	tst	r11		
    8db8:	02 24       	jz	$+6      	;abs 0x8dbe
    8dba:	c1 43 2b 00 	mov.b	#0,	43(r1)	;r3 As==00, 0x002b(r1)
    8dbe:	0b 5b       	rla	r11		
    8dc0:	0b 43       	clr	r11		
    8dc2:	0b 6b       	rlc	r11		
    8dc4:	c1 4b 2f 00 	mov.b	r11,	47(r1)	;0x002f(r1)
    8dc8:	81 48 1e 00 	mov	r8,	30(r1)	;0x001e(r1)
    8dcc:	f1 b2 00 00 	bit.b	#8,	0(r1)	;r2 As==11, 0x0000(r1)
    8dd0:	12 24       	jz	$+38     	;abs 0x8df6
    8dd2:	c1 93 2b 00 	tst.b	43(r1)		;0x002b(r1)
    8dd6:	0f 20       	jnz	$+32     	;abs 0x8df6
    8dd8:	69 41       	mov.b	@r1,	r9	
    8dda:	b1 90 10 00 	cmp	#16,	34(r1)	;#0x0010, 0x0022(r1)
    8dde:	22 00 
    8de0:	03 20       	jnz	$+8      	;abs 0x8de8
    8de2:	79 d0 40 00 	bis.b	#64,	r9	;#0x0040
    8de6:	05 3c       	jmp	$+12     	;abs 0x8df2
    8de8:	b1 92 22 00 	cmp	#8,	34(r1)	;r2 As==11, 0x0022(r1)
    8dec:	04 20       	jnz	$+10     	;abs 0x8df6
    8dee:	79 d0 20 00 	bis.b	#32,	r9	;#0x0020
    8df2:	c1 49 00 00 	mov.b	r9,	0(r1)	;0x0000(r1)
    8df6:	69 41       	mov.b	@r1,	r9	
    8df8:	69 b2       	bit.b	#4,	r9	;r2 As==10
    8dfa:	20 24       	jz	$+66     	;abs 0x8e3c
    8dfc:	c1 93 2f 00 	tst.b	47(r1)		;0x002f(r1)
    8e00:	1d 24       	jz	$+60     	;abs 0x8e3c
    8e02:	f1 40 2d 00 	mov.b	#45,	2(r1)	;#0x002d, 0x0002(r1)
    8e06:	02 00 
    8e08:	69 b3       	bit.b	#2,	r9	;r3 As==10
    8e0a:	09 24       	jz	$+20     	;abs 0x8e1e
    8e0c:	34 e3       	inv	r4		
    8e0e:	35 e3       	inv	r5		
    8e10:	36 e3       	inv	r6		
    8e12:	37 e3       	inv	r7		
    8e14:	14 53       	inc	r4		
    8e16:	05 63       	adc	r5		
    8e18:	06 63       	adc	r6		
    8e1a:	07 63       	adc	r7		
    8e1c:	0f 3c       	jmp	$+32     	;abs 0x8e3c
    8e1e:	59 b3       	bit.b	#1,	r9	;r3 As==01
    8e20:	09 24       	jz	$+20     	;abs 0x8e34
    8e22:	0a 44       	mov	r4,	r10	
    8e24:	0b 45       	mov	r5,	r11	
    8e26:	3a e3       	inv	r10		
    8e28:	3b e3       	inv	r11		
    8e2a:	04 4a       	mov	r10,	r4	
    8e2c:	05 4b       	mov	r11,	r5	
    8e2e:	14 53       	inc	r4		
    8e30:	05 63       	adc	r5		
    8e32:	04 3c       	jmp	$+10     	;abs 0x8e3c
    8e34:	0a 44       	mov	r4,	r10	
    8e36:	3a e3       	inv	r10		
    8e38:	04 4a       	mov	r10,	r4	
    8e3a:	14 53       	inc	r4		
    8e3c:	c1 43 1b 00 	mov.b	#0,	27(r1)	;r3 As==00, 0x001b(r1)
    8e40:	69 b3       	bit.b	#2,	r9	;r3 As==10
    8e42:	5e 24       	jz	$+190    	;abs 0x8f00
    8e44:	81 44 32 00 	mov	r4,	50(r1)	;0x0032(r1)
    8e48:	81 45 3c 00 	mov	r5,	60(r1)	;0x003c(r1)
    8e4c:	0a 46       	mov	r6,	r10	
    8e4e:	08 41       	mov	r1,	r8	
    8e50:	38 50 1a 00 	add	#26,	r8	;#0x001a
    8e54:	81 47 3e 00 	mov	r7,	62(r1)	;0x003e(r1)
    8e58:	14 41 22 00 	mov	34(r1),	r4	;0x0022(r1)
    8e5c:	0b 44       	mov	r4,	r11	
    8e5e:	8b 10       	swpb	r11		
    8e60:	8b 11       	sxt	r11		
    8e62:	8b 10       	swpb	r11		
    8e64:	8b 11       	sxt	r11		
    8e66:	05 4b       	mov	r11,	r5	
    8e68:	06 4b       	mov	r11,	r6	
    8e6a:	07 4b       	mov	r11,	r7	
    8e6c:	37 15       	pushm	#4,	r7	
    8e6e:	1c 41 3a 00 	mov	58(r1),	r12	;0x003a(r1)
    8e72:	1d 41 44 00 	mov	68(r1),	r13	;0x0044(r1)
    8e76:	0e 4a       	mov	r10,	r14	
    8e78:	1f 41 46 00 	mov	70(r1),	r15	;0x0046(r1)
    8e7c:	b0 12 ca 91 	call	#0x91ca	
    8e80:	31 52       	add	#8,	r1	;r2 As==11
    8e82:	0b 4c       	mov	r12,	r11	
    8e84:	3c 90 0a 00 	cmp	#10,	r12	;#0x000a
    8e88:	05 34       	jge	$+12     	;abs 0x8e94
    8e8a:	7b 50 30 00 	add.b	#48,	r11	;#0x0030
    8e8e:	c8 4b 00 00 	mov.b	r11,	0(r8)	;0x0000(r8)
    8e92:	0c 3c       	jmp	$+26     	;abs 0x8eac
    8e94:	4b 4c       	mov.b	r12,	r11	
    8e96:	d1 b3 01 00 	bit.b	#1,	1(r1)	;r3 As==01, 0x0001(r1)
    8e9a:	03 24       	jz	$+8      	;abs 0x8ea2
    8e9c:	79 40 37 00 	mov.b	#55,	r9	;#0x0037
    8ea0:	02 3c       	jmp	$+6      	;abs 0x8ea6
    8ea2:	79 40 57 00 	mov.b	#87,	r9	;#0x0057
    8ea6:	49 5b       	add.b	r11,	r9	
    8ea8:	c8 49 00 00 	mov.b	r9,	0(r8)	;0x0000(r8)
    8eac:	0b 48       	mov	r8,	r11	
    8eae:	3b 53       	add	#-1,	r11	;r3 As==11
    8eb0:	37 15       	pushm	#4,	r7	
    8eb2:	1c 41 3a 00 	mov	58(r1),	r12	;0x003a(r1)
    8eb6:	1d 41 44 00 	mov	68(r1),	r13	;0x0044(r1)
    8eba:	0e 4a       	mov	r10,	r14	
    8ebc:	1f 41 46 00 	mov	70(r1),	r15	;0x0046(r1)
    8ec0:	b0 12 b0 91 	call	#0x91b0	
    8ec4:	31 52       	add	#8,	r1	;r2 As==11
    8ec6:	81 4c 32 00 	mov	r12,	50(r1)	;0x0032(r1)
    8eca:	81 4d 3c 00 	mov	r13,	60(r1)	;0x003c(r1)
    8ece:	0a 4e       	mov	r14,	r10	
    8ed0:	81 4f 3e 00 	mov	r15,	62(r1)	;0x003e(r1)
    8ed4:	38 53       	add	#-1,	r8	;r3 As==11
    8ed6:	0c 93       	tst	r12		
    8ed8:	bf 23       	jnz	$-128    	;abs 0x8e58
    8eda:	0d 93       	tst	r13		
    8edc:	bd 23       	jnz	$-132    	;abs 0x8e58
    8ede:	0e 93       	tst	r14		
    8ee0:	bb 23       	jnz	$-136    	;abs 0x8e58
    8ee2:	0f 93       	tst	r15		
    8ee4:	b9 23       	jnz	$-140    	;abs 0x8e58
    8ee6:	81 44 4c 00 	mov	r4,	76(r1)	;0x004c(r1)
    8eea:	81 45 4e 00 	mov	r5,	78(r1)	;0x004e(r1)
    8eee:	81 46 50 00 	mov	r6,	80(r1)	;0x0050(r1)
    8ef2:	81 47 52 00 	mov	r7,	82(r1)	;0x0052(r1)
    8ef6:	04 43       	clr	r4		
    8ef8:	05 43       	clr	r5		
    8efa:	06 43       	clr	r6		
    8efc:	07 43       	clr	r7		
    8efe:	78 3c       	jmp	$+242    	;abs 0x8ff0
    8f00:	4a 49       	mov.b	r9,	r10	
    8f02:	5a f3       	and.b	#1,	r10	;r3 As==01
    8f04:	4b 24       	jz	$+152    	;abs 0x8f9c
    8f06:	0a 44       	mov	r4,	r10	
    8f08:	08 41       	mov	r1,	r8	
    8f0a:	38 50 1a 00 	add	#26,	r8	;#0x001a
    8f0e:	81 44 32 00 	mov	r4,	50(r1)	;0x0032(r1)
    8f12:	81 45 34 00 	mov	r5,	52(r1)	;0x0034(r1)
    8f16:	81 46 36 00 	mov	r6,	54(r1)	;0x0036(r1)
    8f1a:	81 47 38 00 	mov	r7,	56(r1)	;0x0038(r1)
    8f1e:	07 44       	mov	r4,	r7	
    8f20:	06 45       	mov	r5,	r6	
    8f22:	19 41 22 00 	mov	34(r1),	r9	;0x0022(r1)
    8f26:	89 10       	swpb	r9		
    8f28:	89 11       	sxt	r9		
    8f2a:	89 10       	swpb	r9		
    8f2c:	89 11       	sxt	r9		
    8f2e:	1c 41 22 00 	mov	34(r1),	r12	;0x0022(r1)
    8f32:	0d 49       	mov	r9,	r13	
    8f34:	0e 47       	mov	r7,	r14	
    8f36:	0f 46       	mov	r6,	r15	
    8f38:	b0 12 54 91 	call	#0x9154	
    8f3c:	0b 4e       	mov	r14,	r11	
    8f3e:	3e 90 0a 00 	cmp	#10,	r14	;#0x000a
    8f42:	05 34       	jge	$+12     	;abs 0x8f4e
    8f44:	7b 50 30 00 	add.b	#48,	r11	;#0x0030
    8f48:	c8 4b 00 00 	mov.b	r11,	0(r8)	;0x0000(r8)
    8f4c:	0c 3c       	jmp	$+26     	;abs 0x8f66
    8f4e:	4b 4e       	mov.b	r14,	r11	
    8f50:	d1 b3 01 00 	bit.b	#1,	1(r1)	;r3 As==01, 0x0001(r1)
    8f54:	03 24       	jz	$+8      	;abs 0x8f5c
    8f56:	7a 40 37 00 	mov.b	#55,	r10	;#0x0037
    8f5a:	02 3c       	jmp	$+6      	;abs 0x8f60
    8f5c:	7a 40 57 00 	mov.b	#87,	r10	;#0x0057
    8f60:	4a 5b       	add.b	r11,	r10	
    8f62:	c8 4a 00 00 	mov.b	r10,	0(r8)	;0x0000(r8)
    8f66:	0b 48       	mov	r8,	r11	
    8f68:	3b 53       	add	#-1,	r11	;r3 As==11
    8f6a:	1c 41 22 00 	mov	34(r1),	r12	;0x0022(r1)
    8f6e:	0d 49       	mov	r9,	r13	
    8f70:	0e 47       	mov	r7,	r14	
    8f72:	0f 46       	mov	r6,	r15	
    8f74:	b0 12 26 91 	call	#0x9126	
    8f78:	07 4e       	mov	r14,	r7	
    8f7a:	06 4f       	mov	r15,	r6	
    8f7c:	38 53       	add	#-1,	r8	;r3 As==11
    8f7e:	0e 93       	tst	r14		
    8f80:	d0 23       	jnz	$-94     	;abs 0x8f22
    8f82:	0f 93       	tst	r15		
    8f84:	ce 23       	jnz	$-98     	;abs 0x8f22
    8f86:	14 41 32 00 	mov	50(r1),	r4	;0x0032(r1)
    8f8a:	15 41 34 00 	mov	52(r1),	r5	;0x0034(r1)
    8f8e:	16 41 36 00 	mov	54(r1),	r6	;0x0036(r1)
    8f92:	17 41 38 00 	mov	56(r1),	r7	;0x0038(r1)
    8f96:	04 43       	clr	r4		
    8f98:	05 43       	clr	r5		
    8f9a:	2a 3c       	jmp	$+86     	;abs 0x8ff0
    8f9c:	08 44       	mov	r4,	r8	
    8f9e:	09 41       	mov	r1,	r9	
    8fa0:	39 50 1a 00 	add	#26,	r9	;#0x001a
    8fa4:	1e 41 22 00 	mov	34(r1),	r14	;0x0022(r1)
    8fa8:	0f 48       	mov	r8,	r15	
    8faa:	b0 12 1e 91 	call	#0x911e	
    8fae:	0d 4f       	mov	r15,	r13	
    8fb0:	3f 90 0a 00 	cmp	#10,	r15	;#0x000a
    8fb4:	05 34       	jge	$+12     	;abs 0x8fc0
    8fb6:	7d 50 30 00 	add.b	#48,	r13	;#0x0030
    8fba:	c9 4d 00 00 	mov.b	r13,	0(r9)	;0x0000(r9)
    8fbe:	0c 3c       	jmp	$+26     	;abs 0x8fd8
    8fc0:	4d 4f       	mov.b	r15,	r13	
    8fc2:	d1 b3 01 00 	bit.b	#1,	1(r1)	;r3 As==01, 0x0001(r1)
    8fc6:	03 24       	jz	$+8      	;abs 0x8fce
    8fc8:	7c 40 37 00 	mov.b	#55,	r12	;#0x0037
    8fcc:	02 3c       	jmp	$+6      	;abs 0x8fd2
    8fce:	7c 40 57 00 	mov.b	#87,	r12	;#0x0057
    8fd2:	4c 5d       	add.b	r13,	r12	
    8fd4:	c9 4c 00 00 	mov.b	r12,	0(r9)	;0x0000(r9)
    8fd8:	0b 49       	mov	r9,	r11	
    8fda:	3b 53       	add	#-1,	r11	;r3 As==11
    8fdc:	1e 41 22 00 	mov	34(r1),	r14	;0x0022(r1)
    8fe0:	0f 48       	mov	r8,	r15	
    8fe2:	b0 12 04 91 	call	#0x9104	
    8fe6:	08 4f       	mov	r15,	r8	
    8fe8:	39 53       	add	#-1,	r9	;r3 As==11
    8fea:	0f 93       	tst	r15		
    8fec:	db 23       	jnz	$-72     	;abs 0x8fa4
    8fee:	04 43       	clr	r4		
    8ff0:	b1 90 0a 00 	cmp	#10,	34(r1)	;#0x000a, 0x0022(r1)
    8ff4:	22 00 
    8ff6:	02 24       	jz	$+6      	;abs 0x8ffc
    8ff8:	c1 43 02 00 	mov.b	#0,	2(r1)	;r3 As==00, 0x0002(r1)
    8ffc:	c1 93 2e 00 	tst.b	46(r1)		;0x002e(r1)
    9000:	2a 24       	jz	$+86     	;abs 0x9056
    9002:	0f 41       	mov	r1,	r15	
    9004:	3f 50 1c 00 	add	#28,	r15	;#0x001c
    9008:	81 4f 44 00 	mov	r15,	68(r1)	;0x0044(r1)
    900c:	1c 41 1c 00 	mov	28(r1),	r12	;0x001c(r1)
    9010:	8c 10       	swpb	r12		
    9012:	8c 11       	sxt	r12		
    9014:	8c 10       	swpb	r12		
    9016:	8c 11       	sxt	r12		
    9018:	81 4c 46 00 	mov	r12,	70(r1)	;0x0046(r1)
    901c:	81 4b 48 00 	mov	r11,	72(r1)	;0x0048(r1)
    9020:	0c 4b       	mov	r11,	r12	
    9022:	8c 10       	swpb	r12		
    9024:	8c 11       	sxt	r12		
    9026:	8c 10       	swpb	r12		
    9028:	8c 11       	sxt	r12		
    902a:	81 4c 4a 00 	mov	r12,	74(r1)	;0x004a(r1)
    902e:	1c 41 44 00 	mov	68(r1),	r12	;0x0044(r1)
    9032:	1d 41 46 00 	mov	70(r1),	r13	;0x0046(r1)
    9036:	1c 81 48 00 	sub	72(r1),	r12	;0x0048(r1)
    903a:	1d 71 4a 00 	subc	74(r1),	r13	;0x004a(r1)
    903e:	2c 83       	decd	r12		
    9040:	1c 91 20 00 	cmp	32(r1),	r12	;0x0020(r1)
    9044:	0e 2c       	jc	$+30     	;abs 0x9062
    9046:	e1 d3 01 00 	bis.b	#2,	1(r1)	;r3 As==10, 0x0001(r1)
    904a:	5f 41 20 00 	mov.b	32(r1),	r15	;0x0020(r1)
    904e:	4f 8c       	sub.b	r12,	r15	
    9050:	c1 4f 03 00 	mov.b	r15,	3(r1)	;0x0003(r1)
    9054:	06 3c       	jmp	$+14     	;abs 0x9062
    9056:	c1 93 2a 00 	tst.b	42(r1)		;0x002a(r1)
    905a:	03 24       	jz	$+8      	;abs 0x9062
    905c:	91 41 20 00 	mov	32(r1),	48(r1)	;0x0020(r1), 0x0030(r1)
    9060:	30 00 
    9062:	11 12 04 00 	push	4(r1)		;0x0004(r1)
    9066:	11 12 04 00 	push	4(r1)		;0x0004(r1)
    906a:	1d 41 34 00 	mov	52(r1),	r13	;0x0034(r1)
    906e:	0e 4b       	mov	r11,	r14	
    9070:	1e 53       	inc	r14		
    9072:	1f 41 3e 00 	mov	62(r1),	r15	;0x003e(r1)
    9076:	b0 12 c0 88 	call	#0x88c0	
    907a:	21 52       	add	#4,	r1	;r2 As==10
    907c:	81 5f 2c 00 	add	r15,	44(r1)	;0x002c(r1)
    9080:	0d 3c       	jmp	$+28     	;abs 0x909c
    9082:	7f 4a       	mov.b	@r10+,	r15	
    9084:	8f 11       	sxt	r15		
    9086:	91 12 3c 00 	call	60(r1)		;0x003c(r1)
    908a:	0c 4a       	mov	r10,	r12	
    908c:	0c 59       	add	r9,	r12	
    908e:	1a 91 42 00 	cmp	66(r1),	r10	;0x0042(r1)
    9092:	f7 2b       	jnc	$-16     	;abs 0x9082
    9094:	81 4a 40 00 	mov	r10,	64(r1)	;0x0040(r1)
    9098:	81 4c 2c 00 	mov	r12,	44(r1)	;0x002c(r1)
    909c:	08 43       	clr	r8		
    909e:	0f 3c       	jmp	$+32     	;abs 0x90be
    90a0:	91 41 20 00 	mov	32(r1),	48(r1)	;0x0020(r1), 0x0030(r1)
    90a4:	30 00 
    90a6:	d1 43 2e 00 	mov.b	#1,	46(r1)	;r3 As==01, 0x002e(r1)
    90aa:	c1 43 2a 00 	mov.b	#0,	42(r1)	;r3 As==00, 0x002a(r1)
    90ae:	04 3c       	jmp	$+10     	;abs 0x90b8
    90b0:	81 4c 1e 00 	mov	r12,	30(r1)	;0x001e(r1)
    90b4:	d1 43 2a 00 	mov.b	#1,	42(r1)	;r3 As==01, 0x002a(r1)
    90b8:	81 43 20 00 	mov	#0,	32(r1)	;r3 As==00, 0x0020(r1)
    90bc:	18 43       	mov	#1,	r8	;r3 As==01
    90be:	1c 41 42 00 	mov	66(r1),	r12	;0x0042(r1)
    90c2:	6e 4c       	mov.b	@r12,	r14	
    90c4:	4e 93       	tst.b	r14		
    90c6:	02 24       	jz	$+6      	;abs 0x90cc
    90c8:	30 40 8c 8a 	br	#0x8a8c	
    90cc:	1f 41 2c 00 	mov	44(r1),	r15	;0x002c(r1)
    90d0:	31 50 54 00 	add	#84,	r1	;#0x0054
    90d4:	74 17       	popm	#8,	r11	
    90d6:	30 41       	ret			

000090d8 <puts>:
    90d8:	0b 12       	push	r11		
    90da:	0b 4f       	mov	r15,	r11	
    90dc:	6f 4b       	mov.b	@r11,	r15	
    90de:	4f 93       	tst.b	r15		
    90e0:	06 24       	jz	$+14     	;abs 0x90ee
    90e2:	1b 53       	inc	r11		
    90e4:	8f 11       	sxt	r15		
    90e6:	b0 12 16 87 	call	#0x8716	
    90ea:	0f 93       	tst	r15		
    90ec:	f7 37       	jge	$-16     	;abs 0x90dc
    90ee:	cb 93 00 00 	tst.b	0(r11)		;0x0000(r11)
    90f2:	05 20       	jnz	$+12     	;abs 0x90fe
    90f4:	3f 40 0a 00 	mov	#10,	r15	;#0x000a
    90f8:	b0 12 16 87 	call	#0x8716	
    90fc:	01 3c       	jmp	$+4      	;abs 0x9100
    90fe:	3f 43       	mov	#-1,	r15	;r3 As==11
    9100:	3b 41       	pop	r11		
    9102:	30 41       	ret			

00009104 <__udivhi3>:
    9104:	7c 40 10 00 	mov.b	#16,	r12	;#0x0010
    9108:	0d 4e       	mov	r14,	r13	
    910a:	0e 43       	clr	r14		
    910c:	0f 5f       	rla	r15		
    910e:	0e 6e       	rlc	r14		
    9110:	0e 9d       	cmp	r13,	r14	
    9112:	02 28       	jnc	$+6      	;abs 0x9118
    9114:	0e 8d       	sub	r13,	r14	
    9116:	1f d3       	bis	#1,	r15	;r3 As==01
    9118:	1c 83       	dec	r12		
    911a:	f8 23       	jnz	$-14     	;abs 0x910c
    911c:	30 41       	ret			

0000911e <__umodhi3>:
    911e:	b0 12 04 91 	call	#0x9104	
    9122:	0f 4e       	mov	r14,	r15	
    9124:	30 41       	ret			

00009126 <__udivsi3>:
    9126:	2b 15       	pushm	#3,	r11	
    9128:	79 40 20 00 	mov.b	#32,	r9	;#0x0020
    912c:	0a 4c       	mov	r12,	r10	
    912e:	0b 4d       	mov	r13,	r11	
    9130:	0c 43       	clr	r12		
    9132:	0d 43       	clr	r13		
    9134:	0e 5e       	rla	r14		
    9136:	0f 6f       	rlc	r15		
    9138:	0c 6c       	rlc	r12		
    913a:	0d 6d       	rlc	r13		
    913c:	0d 9b       	cmp	r11,	r13	
    913e:	06 28       	jnc	$+14     	;abs 0x914c
    9140:	02 20       	jnz	$+6      	;abs 0x9146
    9142:	0c 9a       	cmp	r10,	r12	
    9144:	03 28       	jnc	$+8      	;abs 0x914c
    9146:	0c 8a       	sub	r10,	r12	
    9148:	0d 7b       	subc	r11,	r13	
    914a:	1e d3       	bis	#1,	r14	;r3 As==01
    914c:	19 83       	dec	r9		
    914e:	f2 23       	jnz	$-26     	;abs 0x9134
    9150:	29 17       	popm	#3,	r11	
    9152:	30 41       	ret			

00009154 <__umodsi3>:
    9154:	b0 12 26 91 	call	#0x9126	
    9158:	0e 4c       	mov	r12,	r14	
    915a:	0f 4d       	mov	r13,	r15	
    915c:	30 41       	ret			

0000915e <__xabi_udivmod64>:
    915e:	37 15       	pushm	#4,	r7	
    9160:	30 12 40 00 	push	#64		;#0x0040
    9164:	04 48       	mov	r8,	r4	
    9166:	05 49       	mov	r9,	r5	
    9168:	06 4a       	mov	r10,	r6	
    916a:	07 4b       	mov	r11,	r7	
    916c:	08 43       	clr	r8		
    916e:	09 43       	clr	r9		
    9170:	0a 43       	clr	r10		
    9172:	0b 43       	clr	r11		
    9174:	0c 5c       	rla	r12		
    9176:	0d 6d       	rlc	r13		
    9178:	0e 6e       	rlc	r14		
    917a:	0f 6f       	rlc	r15		
    917c:	08 68       	rlc	r8		
    917e:	09 69       	rlc	r9		
    9180:	0a 6a       	rlc	r10		
    9182:	0b 6b       	rlc	r11		
    9184:	0b 97       	cmp	r7,	r11	
    9186:	0e 28       	jnc	$+30     	;abs 0x91a4
    9188:	08 20       	jnz	$+18     	;abs 0x919a
    918a:	0a 96       	cmp	r6,	r10	
    918c:	0b 28       	jnc	$+24     	;abs 0x91a4
    918e:	05 20       	jnz	$+12     	;abs 0x919a
    9190:	09 95       	cmp	r5,	r9	
    9192:	08 28       	jnc	$+18     	;abs 0x91a4
    9194:	02 20       	jnz	$+6      	;abs 0x919a
    9196:	08 94       	cmp	r4,	r8	
    9198:	05 28       	jnc	$+12     	;abs 0x91a4
    919a:	08 84       	sub	r4,	r8	
    919c:	09 75       	subc	r5,	r9	
    919e:	0a 76       	subc	r6,	r10	
    91a0:	0b 77       	subc	r7,	r11	
    91a2:	1c d3       	bis	#1,	r12	;r3 As==01
    91a4:	91 83 00 00 	dec	0(r1)		;0x0000(r1)
    91a8:	e5 23       	jnz	$-52     	;abs 0x9174
    91aa:	21 53       	incd	r1		
    91ac:	34 17       	popm	#4,	r7	
    91ae:	30 41       	ret			

000091b0 <__udivdi3>:
    91b0:	3b 15       	pushm	#4,	r11	
    91b2:	18 41 0a 00 	mov	10(r1),	r8	;0x000a(r1)
    91b6:	19 41 0c 00 	mov	12(r1),	r9	;0x000c(r1)
    91ba:	1a 41 0e 00 	mov	14(r1),	r10	;0x000e(r1)
    91be:	1b 41 10 00 	mov	16(r1),	r11	;0x0010(r1)
    91c2:	b0 12 5e 91 	call	#0x915e	
    91c6:	38 17       	popm	#4,	r11	
    91c8:	30 41       	ret			

000091ca <__umoddi3>:
    91ca:	3b 15       	pushm	#4,	r11	
    91cc:	18 41 0a 00 	mov	10(r1),	r8	;0x000a(r1)
    91d0:	19 41 0c 00 	mov	12(r1),	r9	;0x000c(r1)
    91d4:	1a 41 0e 00 	mov	14(r1),	r10	;0x000e(r1)
    91d8:	1b 41 10 00 	mov	16(r1),	r11	;0x0010(r1)
    91dc:	b0 12 5e 91 	call	#0x915e	
    91e0:	0c 48       	mov	r8,	r12	
    91e2:	0d 49       	mov	r9,	r13	
    91e4:	0e 4a       	mov	r10,	r14	
    91e6:	0f 4b       	mov	r11,	r15	
    91e8:	38 17       	popm	#4,	r11	
    91ea:	30 41       	ret			

000091ec <__udivmoddi4>:
    91ec:	4b 15       	pushm	#5,	r11	
    91ee:	18 41 0c 00 	mov	12(r1),	r8	;0x000c(r1)
    91f2:	19 41 0e 00 	mov	14(r1),	r9	;0x000e(r1)
    91f6:	1a 41 10 00 	mov	16(r1),	r10	;0x0010(r1)
    91fa:	1b 41 12 00 	mov	18(r1),	r11	;0x0012(r1)
    91fe:	b0 12 5e 91 	call	#0x915e	
    9202:	17 41 14 00 	mov	20(r1),	r7	;0x0014(r1)
    9206:	87 48 00 00 	mov	r8,	0(r7)	;0x0000(r7)
    920a:	87 49 02 00 	mov	r9,	2(r7)	;0x0002(r7)
    920e:	87 4a 04 00 	mov	r10,	4(r7)	;0x0004(r7)
    9212:	87 4b 06 00 	mov	r11,	6(r7)	;0x0006(r7)
    9216:	47 17       	popm	#5,	r11	
    9218:	30 41       	ret			

0000921a <_unexpected_>:
    921a:	00 13       	reti			

Disassembly of section .rodata:

0000921c <TxBuffer-0x2b>:
    921c:	52 45 63 65 	mov.b	25955(r5),r2	;0x6563(r5)
    9220:	69 76       	subc.b	@r6,	r9	
    9222:	65 64       	addc.b	@r4,	r5	
    9224:	20 52       	add	#4,	r0	;r2 As==10
    9226:	53 53       	inc.b	#0		;r3 As==00
    9228:	53 49       	.word	0x4953;	????	Illegal as 2-op instr
    922a:	20 69       	addc	@r9,	r0	
    922c:	73 20       	jnz	$+232    	;abs 0x9314
    922e:	2e 2e       	jc	$-930    	;abs 0x8e8c
    9230:	20 25       	jz	$+578    	;abs 0x9472
    9232:	69 20       	jnz	$+212    	;abs 0x9306
    9234:	64 42       	mov.b	#4,	r4	;r2 As==10
    9236:	6d 20       	jnz	$+220    	;abs 0x9312
    9238:	0d 00       	mova	@r0,	r13	
    923a:	74 72       	subc.b	#8,	r4	;r2 As==11
    923c:	61 73       	subc.b	#2,	r1	;r3 As==10
    923e:	6d 69       	addc.b	@r9,	r13	
    9240:	74 74       	subc.b	@r4+,	r4	
    9242:	69 6e       	addc.b	@r14,	r9	
    9244:	67 20       	jnz	$+208    	;abs 0x9314
	...

00009247 <TxBuffer>:
    9247:	05 27       	jz	$-500    	;abs 0x9053
    9249:	4c 53       	add.b	#0,	r12	;r3 As==00
    924b:	44 2e       	jc	$-886    	;abs 0x8ed5
    924d:	28 6e       	addc	@r14,	r8	
    924f:	75 6c       	addc.b	@r12+,	r5	
    9251:	6c 29       	jnc	$+730    	;abs 0x952b
	...

Disassembly of section .data:

00001c00 <__data_start>:
    1c00:	08 00       	mova	@r0,	r8	
    1c02:	10 a7 62 ca 	dadd	-13726(r7),r0	;0xca62(r7)
    1c06:	83 93       	tst	#1		;r3 As==01
    1c08:	22 f8       	and	@r8,	r2	
    1c0a:	00 34       	jge	$+2      	;abs 0x1c0c
    1c0c:	56 10 18 16 	rrc.b	5656(r6)	;0x1618(r6)
    1c10:	6c 43       	mov.b	#2,	r12	;r3 As==10
    1c12:	40 91       	cmp.b	r1,	r0	
    1c14:	e9 2a       	jnc	$-556    	;abs 0x19e8
    1c16:	00 1f 59 81 	subx.a	-128715(r1),r9	;0xe0935(r1)
    1c1a:	35 09 
    1c1c:	47 29       	jnc	$+656    	;abs 0x1eac
    1c1e:	06 04       	mova	@r4,	r6	
    1c20:	05 00       	mova	@r0,	r5	
    1c22:	3d 00 00 00 	mova	0(r0),	r13	;PC rel. 0x01c24

Disassembly of section .bss:

00001c26 <__bss_start>:
	...

00001c28 <receive>:
	...

00001c2a <transmit>:
	...

00001c2c <receiving>:
	...

00001c2e <transmitting>:
	...

00001c30 <i>:
	...

00001c32 <buttonPressed>:
	...

00001c34 <RxBufferLength>:
	...

00001c36 <packetReceived>:
	...

00001c37 <packetTransmit>:
	...

00001c38 <RxBuffer>:
	...

00001c78 <rssi>:
	...

Disassembly of section .noinit:

00001c7a <__wdt_clear_value>:
	...

Disassembly of section .vectors:

0000ff80 <__ivtbl_64>:
    ff80:	ff ff ff ff 	and.b	@r15+,	-1(r15)	;0xffff(r15)
    ff84:	ff ff ff ff 	and.b	@r15+,	-1(r15)	;0xffff(r15)
    ff88:	ff ff ff ff 	and.b	@r15+,	-1(r15)	;0xffff(r15)
    ff8c:	ff ff ff ff 	and.b	@r15+,	-1(r15)	;0xffff(r15)
    ff90:	ff ff ff ff 	and.b	@r15+,	-1(r15)	;0xffff(r15)
    ff94:	ff ff ff ff 	and.b	@r15+,	-1(r15)	;0xffff(r15)
    ff98:	ff ff ff ff 	and.b	@r15+,	-1(r15)	;0xffff(r15)
    ff9c:	ff ff ff ff 	and.b	@r15+,	-1(r15)	;0xffff(r15)
    ffa0:	ff ff ff ff 	and.b	@r15+,	-1(r15)	;0xffff(r15)
    ffa4:	ff ff ff ff 	and.b	@r15+,	-1(r15)	;0xffff(r15)
    ffa8:	ff ff ff ff 	and.b	@r15+,	-1(r15)	;0xffff(r15)
    ffac:	ff ff ff ff 	and.b	@r15+,	-1(r15)	;0xffff(r15)
    ffb0:	ff ff ff ff 	and.b	@r15+,	-1(r15)	;0xffff(r15)
    ffb4:	ff ff ff ff 	and.b	@r15+,	-1(r15)	;0xffff(r15)
    ffb8:	ff ff ff ff 	and.b	@r15+,	-1(r15)	;0xffff(r15)
    ffbc:	ff ff ff ff 	and.b	@r15+,	-1(r15)	;0xffff(r15)
    ffc0:	f4 80 f4 80 	sub.b	#-32524,-32524(r4);#0x80f4, 0x80f4(r4)
    ffc4:	f4 80 
    ffc6:	f4 80 f4 80 	sub.b	#-32524,-32524(r4);#0x80f4, 0x80f4(r4)
    ffca:	f4 80 
    ffcc:	f4 80 f4 80 	sub.b	#-32524,-32524(r4);#0x80f4, 0x80f4(r4)
    ffd0:	f4 80 
    ffd2:	f4 80 f4 80 	sub.b	#-32524,-32524(r4);#0x80f4, 0x80f4(r4)
    ffd6:	f4 80 
    ffd8:	f4 80 f4 80 	sub.b	#-32524,-32524(r4);#0x80f4, 0x80f4(r4)
    ffdc:	f4 80 
    ffde:	f4 80 f4 80 	sub.b	#-32524,-32524(r4);#0x80f4, 0x80f4(r4)
    ffe2:	f4 80 
    ffe4:	f4 80 f4 80 	sub.b	#-32524,-32524(r4);#0x80f4, 0x80f4(r4)
    ffe8:	f4 80 
    ffea:	ea 87 f4 80 	sub.b	@r7,	-32524(r10);0x80f4(r10)
    ffee:	f4 80 f4 80 	sub.b	#-32524,-32524(r4);#0x80f4, 0x80f4(r4)
    fff2:	f4 80 
    fff4:	70 88       	sub.b	@r8+,	r0	
    fff6:	92 88 f4 80 	sub	-32524(r8),&0x80f4	;0x80f4(r8)
    fffa:	f4 80 
    fffc:	f4 80 00 80 	Address 0x0000000000010000 is out of bounds.
sub.b	#-32768,-1(r4)	;#0x8000, 0xffff(r4)

Disassembly of section .debug_aranges:

00000000 <.debug_aranges>:
   0:	10 00       	bra	#0x00000	
   2:	00 00       	bra	@r0		
   4:	02 00       	mova	@r0,	r2	
   6:	00 00       	bra	@r0		
   8:	00 00       	bra	@r0		
   a:	02 00       	mova	@r0,	r2	
   c:	a2 88 1e 00 	sub	@r8,	&0x001e	
  10:	00 00       	bra	@r0		
  12:	00 00       	bra	@r0		
  14:	10 00       	bra	#0x00000	
  16:	00 00       	bra	@r0		
  18:	02 00       	mova	@r0,	r2	
  1a:	05 01       	mova	@r1,	r5	
  1c:	00 00       	bra	@r0		
  1e:	02 00       	mova	@r0,	r2	
  20:	c0 88 18 08 	sub.b	r8,	2072(r0);PC rel. 0x083a
  24:	00 00       	bra	@r0		
  26:	00 00       	bra	@r0		
  28:	10 00       	bra	#0x00000	
  2a:	00 00       	bra	@r0		
  2c:	02 00       	mova	@r0,	r2	
  2e:	6a 06 00 00 	mova	r6,	&0xa0000
  32:	02 00       	mova	@r0,	r2	
  34:	d8 90 2c 00 	cmp.b	44(r0),	0(r8)	;PC rel. 0x0062, 0x0000(r8)
  38:	00 00 
  3a:	00 00       	bra	@r0		
  3c:	10 00       	bra	#0x00000	
  3e:	00 00       	bra	@r0		
  40:	02 00       	mova	@r0,	r2	
  42:	00 07       	bra	@r7		
  44:	00 00       	bra	@r0		
  46:	02 00       	mova	@r0,	r2	
  48:	04 91       	cmp	r1,	r4	
  4a:	22 00 00 00 	mova	&0x00000,r2	
  4e:	00 00       	bra	@r0		
  50:	10 00       	bra	#0x00000	
  52:	00 00       	bra	@r0		
  54:	02 00       	mova	@r0,	r2	
  56:	c0 07       	bra	r7		
  58:	00 00       	bra	@r0		
  5a:	02 00       	mova	@r0,	r2	
  5c:	26 91       	cmp	@r1,	r6	
  5e:	38 00 00 00 	mova	0(r0),	r8	;PC rel. 0x00060
  62:	00 00       	bra	@r0		
  64:	10 00       	bra	#0x00000	
  66:	00 00       	bra	@r0		
  68:	02 00       	mova	@r0,	r2	
  6a:	80 08 00 00 	bra	#0x80000	
  6e:	02 00       	mova	@r0,	r2	
  70:	5e 91 bc 00 	cmp.b	188(r1),r14	;0x00bc(r1)
  74:	00 00       	bra	@r0		
  76:	00 00       	bra	@r0		
  78:	10 00       	bra	#0x00000	
  7a:	00 00       	bra	@r0		
  7c:	02 00       	mova	@r0,	r2	
  7e:	40 09       	rram.a	#3,	r0	
  80:	00 00       	bra	@r0		
  82:	02 00       	mova	@r0,	r2	
  84:	00 80       	sub	r0,	r0	
  86:	0c 00       	mova	@r0,	r12	
  88:	00 00       	bra	@r0		
  8a:	00 00       	bra	@r0		
  8c:	10 00       	bra	#0x00000	
  8e:	00 00       	bra	@r0		
  90:	02 00       	mova	@r0,	r2	
  92:	cf 09       	mova	r9,	r15	
  94:	00 00       	bra	@r0		
  96:	02 00       	mova	@r0,	r2	
  98:	0c 80       	sub	r0,	r12	
  9a:	04 00       	mova	@r0,	r4	
  9c:	00 00       	bra	@r0		
  9e:	00 00       	bra	@r0		
  a0:	10 00       	bra	#0x00000	
  a2:	00 00       	bra	@r0		
  a4:	02 00       	mova	@r0,	r2	
  a6:	5e 0a       	rlam	#3,	r14	
  a8:	00 00       	bra	@r0		
  aa:	02 00       	mova	@r0,	r2	
  ac:	10 80 18 00 	sub	24(r0),	r0	;PC rel. 0x00c6
  b0:	00 00       	bra	@r0		
  b2:	00 00       	bra	@r0		
  b4:	10 00       	bra	#0x00000	
  b6:	00 00       	bra	@r0		
  b8:	02 00       	mova	@r0,	r2	
  ba:	ed 0a       	adda	r10,	r13	
  bc:	00 00       	bra	@r0		
  be:	02 00       	mova	@r0,	r2	
  c0:	28 80       	sub	@r0,	r8	
  c2:	16 00       	mova	#0x00000,r6	
  c4:	00 00       	bra	@r0		
  c6:	00 00       	bra	@r0		
  c8:	10 00       	bra	#0x00000	
  ca:	00 00       	bra	@r0		
  cc:	02 00       	mova	@r0,	r2	
  ce:	7c 0b 00 00 	mova	r11,	0(r12)	;0x0000(r12)
  d2:	02 00       	mova	@r0,	r2	
  d4:	ee 80 06 00 	sub.b	@r0,	6(r14)	;0x0006(r14)
  d8:	00 00       	bra	@r0		
  da:	00 00       	bra	@r0		
  dc:	10 00       	bra	#0x00000	
  de:	00 00       	bra	@r0		
  e0:	02 00       	mova	@r0,	r2	
  e2:	0b 0c       	mova	@r12,	r11	
  e4:	00 00       	bra	@r0		
  e6:	02 00       	mova	@r0,	r2	
  e8:	1a 92 02 00 	cmp	&0x0002,r10	
  ec:	00 00       	bra	@r0		
	...

Disassembly of section .debug_info:

00000000 <.debug_info>:
   0:	01 01       	mova	@r1,	r1	
   2:	00 00       	bra	@r0		
   4:	02 00       	mova	@r0,	r2	
   6:	00 00       	bra	@r0		
   8:	00 00       	bra	@r0		
   a:	02 01       	mova	@r1,	r2	
   c:	81 00 00 00 	mova	#0x00000,r1	
  10:	01 1a       	.word	0x1a01;	????	
  12:	00 00       	bra	@r0		
  14:	00 bb       	bit	r11,	r0	
  16:	00 00       	bra	@r0		
  18:	00 a2       	dadd	r2,	r0	
  1a:	88 c0 88 00 	bic	r0,	136(r8)	;0x0088(r8)
  1e:	00 00       	bra	@r0		
  20:	00 02       	bra	#4		;r2 As==10
  22:	04 05       	mova	@r5,	r4	
  24:	78 00 00 00 	mova	r0,	0(r8)	;0x0000(r8)
  28:	02 02       	mova	#4,	r2	;r2 As==10
  2a:	07 66       	addc	r6,	r7	
  2c:	00 00       	bra	@r0		
  2e:	00 03       	bra	#2		;r3 As==10
  30:	02 05       	mova	@r5,	r2	
  32:	69 6e       	addc.b	@r14,	r9	
  34:	74 00 02 01 	mova	r0,	258(r4)	;0x0102(r4)
  38:	06 3d       	jmp	$+526    	;abs 0x246
  3a:	00 00       	bra	@r0		
  3c:	00 02       	bra	#4		;r2 As==10
  3e:	08 05       	mova	@r5,	r8	
  40:	73 00       	.word	0x0073;	????	Illegal as address instr
  42:	00 00       	bra	@r0		
  44:	02 01       	mova	@r1,	r2	
  46:	08 3b       	jl	$-494    	;abs 0xfe58
  48:	00 00       	bra	@r0		
  4a:	00 02       	bra	#4		;r2 As==10
  4c:	04 07       	mova	@r7,	r4	
  4e:	61 00 00 00 	mova	r0,	&0x10000
  52:	02 08       	mova	@r8,	r2	
  54:	07 5c       	add	r12,	r7	
  56:	00 00       	bra	@r0		
  58:	00 02       	bra	#4		;r2 As==10
  5a:	02 07       	mova	@r7,	r2	
  5c:	49 00       	rrcm.a	#1,	r9	
  5e:	00 00       	bra	@r0		
  60:	02 01       	mova	@r1,	r2	
  62:	06 44       	mov	r4,	r6	
  64:	00 00       	bra	@r0		
  66:	00 04       	bra	@r4		
  68:	02 6d       	addc	r13,	r2	
  6a:	00 00       	bra	@r0		
  6c:	00 05       	bra	@r5		
  6e:	60 00 00 00 	mova	r0,	&0x00000
  72:	06 2c       	jc	$+14     	;abs 0x80
  74:	00 00       	bra	@r0		
  76:	00 02       	bra	#4		;r2 As==10
  78:	28 7d       	subc	@r13,	r8	
  7a:	00 00       	bra	@r0		
  7c:	00 07       	bra	@r7		
  7e:	02 00       	mova	@r0,	r2	
  80:	00 00       	bra	@r0		
  82:	00 06       	bra	@r6		
  84:	33 00       	.word	0x0033;	????	Illegal as address instr
  86:	00 00       	bra	@r0		
  88:	02 66       	addc	r6,	r2	
  8a:	72 00 00 00 	mova	r0,	&0x0000	
  8e:	08 01       	mova	@r1,	r8	
  90:	8e 02 00 00 	mova	#0x20000,r14	
  94:	01 24       	jz	$+4      	;abs 0x98
  96:	01 2f       	jc	$-508    	;abs 0xfe9a
  98:	00 00       	bra	@r0		
  9a:	00 a2       	dadd	r2,	r0	
  9c:	88 b2 88 02 	bit	r2,	648(r8)	;0x0288(r8)
  a0:	71 02 d1 00 	mova	r2,	209(r1)	;0x00d1(r1)
  a4:	00 00       	bra	@r0		
  a6:	09 66       	addc	r6,	r9	
  a8:	6d 74       	subc.b	@r4,	r13	
  aa:	00 01       	bra	@r1		
  ac:	24 67       	addc	@r7,	r4	
  ae:	00 00       	bra	@r0		
  b0:	00 02       	bra	#4		;r2 As==10
  b2:	91 00 0a 0b 	cmpa	#0x00b0a,r1	
  b6:	b6 00 00 00 	suba	#0x00000,r6	
  ba:	01 26       	jz	$-1020   	;abs 0xfcbe
  bc:	83 00       	.word	0x0083;	????	Illegal as address instr
  be:	00 00       	bra	@r0		
  c0:	00 00       	bra	@r0		
  c2:	00 00       	bra	@r0		
  c4:	0c 72       	subc	r2,	r12	
  c6:	63 00 01 27 	mova	r0,	&0x32701
  ca:	2f 00 00 00 	mova	&0x00000,r15	
  ce:	01 5f       	add	r15,	r1	
  d0:	00 0d       	bra	@r13		
  d2:	01 12       	push	r1		
  d4:	00 00       	bra	@r0		
  d6:	00 01       	bra	@r1		
  d8:	30 01 2f 00 	bra	47(r1)		;0x002f(r1)
  dc:	00 00       	bra	@r0		
  de:	b2 88 c0 88 	sub	@r8+,	&0x88c0	
  e2:	02 71       	subc	r1,	r2	
  e4:	02 0e       	mova	@r14,	r2	
  e6:	66 6d       	addc.b	@r13,	r6	
  e8:	74 00 01 30 	mova	r0,	12289(r4);0x3001(r4)
  ec:	67 00 00 00 	mova	r0,	&0x70000
  f0:	14 00       	mova	#0x00000,r4	
  f2:	00 00       	bra	@r0		
  f4:	0f b6       	bit	r6,	r15	
  f6:	00 00       	bra	@r0		
  f8:	00 01       	bra	@r1		
  fa:	30 83       	sub	#-1,	r0	;r3 As==11
  fc:	00 00       	bra	@r0		
  fe:	00 26       	jz	$-1022   	;abs 0xfd00
 100:	00 00       	bra	@r0		
 102:	00 00       	bra	@r0		
 104:	00 61       	addc	r1,	r0	
 106:	05 00       	mova	@r0,	r5	
 108:	00 02       	bra	#4		;r2 As==10
 10a:	00 d0       	bis	r0,	r0	
 10c:	00 00       	bra	@r0		
 10e:	00 02       	bra	#4		;r2 As==10
 110:	01 81       	sub	r1,	r1	
 112:	00 00       	bra	@r0		
 114:	00 01       	bra	@r1		
 116:	c4 02       	mova	r2,	r4	
 118:	00 00       	bra	@r0		
 11a:	bb 00 00 00 	suba	#0x00000,r11	
 11e:	c0 88 d8 90 	sub.b	r8,	-28456(r0);PC rel. 0x91f8
 122:	7f 00 00 00 	mova	r0,	0(r15)	;0x0000(r15)
 126:	02 04       	mova	@r4,	r2	
 128:	05 78       	subc	r8,	r5	
 12a:	00 00       	bra	@r0		
 12c:	00 02       	bra	#4		;r2 As==10
 12e:	02 07       	mova	@r7,	r2	
 130:	66 00 00 00 	mova	r0,	&0x60000
 134:	03 02       	.word	0x0203;	????	Illegal as address instr
 136:	05 69       	addc	r9,	r5	
 138:	6e 74       	subc.b	@r4,	r14	
 13a:	00 02       	bra	#4		;r2 As==10
 13c:	01 06       	mova	@r6,	r1	
 13e:	3d 00 00 00 	mova	0(r0),	r13	;PC rel. 0x00140
 142:	04 2f       	jc	$-502    	;abs 0xff4c
 144:	02 00       	mova	@r0,	r2	
 146:	00 02       	bra	#4		;r2 As==10
 148:	27 2f       	jc	$-432    	;abs 0xff98
 14a:	00 00       	bra	@r0		
 14c:	00 04       	bra	@r4		
 14e:	1c 02       	mova	#8,	r12	;r2 As==11
 150:	00 00       	bra	@r0		
 152:	02 28       	jnc	$+6      	;abs 0x158
 154:	21 00 00 00 	mova	&0x00000,r1	
 158:	04 11       	rra	r4		
 15a:	01 00       	mova	@r0,	r1	
 15c:	00 02       	bra	#4		;r2 As==10
 15e:	29 5e       	add	@r14,	r9	
 160:	00 00       	bra	@r0		
 162:	00 02       	bra	#4		;r2 As==10
 164:	08 05       	mova	@r5,	r8	
 166:	73 00       	.word	0x0073;	????	Illegal as address instr
 168:	00 00       	bra	@r0		
 16a:	04 51       	add	r1,	r4	
 16c:	01 00       	mova	@r0,	r1	
 16e:	00 02       	bra	#4		;r2 As==10
 170:	2b 70       	subc	@r0,	r11	
 172:	00 00       	bra	@r0		
 174:	00 02       	bra	#4		;r2 As==10
 176:	01 08       	mova	@r8,	r1	
 178:	3b 00 00 00 	mova	0(r0),	r11	;PC rel. 0x0017a
 17c:	04 2e       	jc	$-1014   	;abs 0xfd86
 17e:	02 00       	mova	@r0,	r2	
 180:	00 02       	bra	#4		;r2 As==10
 182:	2c 28       	jnc	$+90     	;abs 0x1dc
 184:	00 00       	bra	@r0		
 186:	00 04       	bra	@r4		
 188:	1b 02       	mova	#8,	r11	;r2 As==11
 18a:	00 00       	bra	@r0		
 18c:	02 2d       	jc	$+518    	;abs 0x392
 18e:	8d 00 00 00 	mova	#0x00000,r13	
 192:	02 04       	mova	@r4,	r2	
 194:	07 61       	addc	r1,	r7	
 196:	00 00       	bra	@r0		
 198:	00 04       	bra	@r4		
 19a:	10 01       	reta			
 19c:	00 00       	bra	@r0		
 19e:	02 2e       	jc	$-1018   	;abs 0xfda4
 1a0:	9f 00 00 00 	cmpa	#0x00000,r15	
 1a4:	02 08       	mova	@r8,	r2	
 1a6:	07 5c       	add	r12,	r7	
 1a8:	00 00       	bra	@r0		
 1aa:	00 04       	bra	@r4		
 1ac:	19 01       	mova	@r1+,	r9	
 1ae:	00 00       	bra	@r0		
 1b0:	02 56       	add	r6,	r2	
 1b2:	3d 00 00 00 	mova	0(r0),	r13	;PC rel. 0x001b4
 1b6:	02 02       	mova	#4,	r2	;r2 As==10
 1b8:	07 49       	mov	r9,	r7	
 1ba:	00 00       	bra	@r0		
 1bc:	00 05       	bra	@r5		
 1be:	02 be       	bit	r14,	r2	
 1c0:	00 00       	bra	@r0		
 1c2:	00 02       	bra	#4		;r2 As==10
 1c4:	01 06       	mova	@r6,	r1	
 1c6:	44 00       	rrcm.a	#1,	r4	
 1c8:	00 00       	bra	@r0		
 1ca:	05 02       	mova	#4,	r5	;r2 As==10
 1cc:	cb 00       	mova	r0,	r11	
 1ce:	00 00       	bra	@r0		
 1d0:	06 be       	bit	r14,	r6	
 1d2:	00 00       	bra	@r0		
 1d4:	00 04       	bra	@r4		
 1d6:	2c 00 00 00 	mova	&0x00000,r12	
 1da:	03 28       	jnc	$+8      	;abs 0x1e2
 1dc:	db 00       	cmpa	r0,	r11	
 1de:	00 00       	bra	@r0		
 1e0:	07 02       	mova	#4,	r7	;r2 As==10
 1e2:	00 00       	bra	@r0		
 1e4:	00 00       	bra	@r0		
 1e6:	04 33       	jn	$-502    	;abs 0xfff0
 1e8:	00 00       	bra	@r0		
 1ea:	00 03       	bra	#2		;r3 As==10
 1ec:	66 d0       	bis.b	@r0,	r6	
 1ee:	00 00       	bra	@r0		
 1f0:	00 08       	bra	@r8		
 1f2:	04 01       	mova	@r1,	r4	
 1f4:	33 cc       	.word	0xcc33;	????	Illegal as 2-op instr
 1f6:	01 00       	mova	@r0,	r1	
 1f8:	00 09       	bra	@r9		
 1fa:	24 02 00 00 	mova	&0x20000,r4	
 1fe:	01 36       	jge	$-1020   	;abs 0xfe02
 200:	65 00 00 00 	mova	r0,	&0x50000
 204:	01 01       	mova	@r1,	r1	
 206:	07 02       	mova	#4,	r7	;r2 As==10
 208:	23 00       	.word	0x0023;	????	Illegal as address instr
 20a:	09 a8       	dadd	r8,	r9	
 20c:	01 00       	mova	@r0,	r1	
 20e:	00 01       	bra	@r1		
 210:	39 65       	addc	@r5+,	r9	
 212:	00 00       	bra	@r0		
 214:	00 01       	bra	@r1		
 216:	01 06       	mova	@r6,	r1	
 218:	02 23       	jnz	$-506    	;abs 0x1e
 21a:	00 09       	bra	@r9		
 21c:	a8 02 00 00 	adda	#0x20000,r8	
 220:	01 3b       	jl	$-508    	;abs 0x24
 222:	65 00 00 00 	mova	r0,	&0x50000
 226:	01 01       	mova	@r1,	r1	
 228:	05 02       	mova	#4,	r5	;r2 As==10
 22a:	23 00       	.word	0x0023;	????	Illegal as address instr
 22c:	09 8a       	sub	r10,	r9	
 22e:	01 00       	mova	@r0,	r1	
 230:	00 01       	bra	@r1		
 232:	3c 65       	addc	@r5+,	r12	
 234:	00 00       	bra	@r0		
 236:	00 01       	bra	@r1		
 238:	01 04       	mova	@r4,	r1	
 23a:	02 23       	jnz	$-506    	;abs 0x40
 23c:	00 09       	bra	@r9		
 23e:	fa 02       	suba	r2,	r10	
 240:	00 00       	bra	@r0		
 242:	01 3d       	jmp	$+516    	;abs 0x446
 244:	65 00 00 00 	mova	r0,	&0x50000
 248:	01 01       	mova	@r1,	r1	
 24a:	03 02       	.word	0x0203;	????	Illegal as address instr
 24c:	23 00       	.word	0x0023;	????	Illegal as address instr
 24e:	09 27       	jz	$-492    	;abs 0x62
 250:	01 00       	mova	@r0,	r1	
 252:	00 01       	bra	@r1		
 254:	3e 65       	addc	@r5+,	r14	
 256:	00 00       	bra	@r0		
 258:	00 01       	bra	@r1		
 25a:	01 02       	mova	#4,	r1	;r2 As==10
 25c:	02 23       	jnz	$-506    	;abs 0x62
 25e:	00 09       	bra	@r9		
 260:	59 01       	rram	#1,	r9	
 262:	00 00       	bra	@r0		
 264:	01 3f       	jmp	$-508    	;abs 0x68
 266:	65 00 00 00 	mova	r0,	&0x50000
 26a:	01 01       	mova	@r1,	r1	
 26c:	01 02       	mova	#4,	r1	;r2 As==10
 26e:	23 00       	.word	0x0023;	????	Illegal as address instr
 270:	09 ba       	bit	r10,	r9	
 272:	02 00       	mova	@r0,	r2	
 274:	00 01       	bra	@r1		
 276:	40 65       	addc.b	r5,	r0	
 278:	00 00       	bra	@r0		
 27a:	00 01       	bra	@r1		
 27c:	01 00       	mova	@r0,	r1	
 27e:	02 23       	jnz	$-506    	;abs 0x84
 280:	00 09       	bra	@r9		
 282:	bc 01 00 00 	suba	#0x10000,r12	
 286:	01 41       	mov	r1,	r1	
 288:	65 00 00 00 	mova	r0,	&0x50000
 28c:	01 01       	mova	@r1,	r1	
 28e:	07 02       	mova	#4,	r7	;r2 As==10
 290:	23 01       	.word	0x0123;	????	Illegal as address instr
 292:	09 c6       	bic	r6,	r9	
 294:	01 00       	mova	@r0,	r1	
 296:	00 01       	bra	@r1		
 298:	42 65       	addc.b	r5,	r2	
 29a:	00 00       	bra	@r0		
 29c:	00 01       	bra	@r1		
 29e:	01 06       	mova	@r6,	r1	
 2a0:	02 23       	jnz	$-506    	;abs 0xa6
 2a2:	01 09       	mova	@r9,	r1	
 2a4:	95 02 00 00 	cmpa	#0x20000,r5	
 2a8:	01 43       	clr	r1		
 2aa:	65 00 00 00 	mova	r0,	&0x50000
 2ae:	01 01       	mova	@r1,	r1	
 2b0:	05 02       	mova	#4,	r5	;r2 As==10
 2b2:	23 01       	.word	0x0123;	????	Illegal as address instr
 2b4:	0a 82       	sub	r2,	r10	
 2b6:	02 00       	mova	@r0,	r2	
 2b8:	00 01       	bra	@r1		
 2ba:	44 be       	bit.b	r14,	r4	
 2bc:	00 00       	bra	@r0		
 2be:	00 02       	bra	#4		;r2 As==10
 2c0:	23 02       	.word	0x0223;	????	Illegal as address instr
 2c2:	0a cf       	bic	r15,	r10	
 2c4:	01 00       	mova	@r0,	r1	
 2c6:	00 01       	bra	@r1		
 2c8:	45 65       	rlc.b	r5		
 2ca:	00 00       	bra	@r0		
 2cc:	00 02       	bra	#4		;r2 As==10
 2ce:	23 03       	.word	0x0323;	????	Illegal as address instr
 2d0:	00 04       	bra	@r4		
 2d2:	b2 02 00 00 	suba	#0x20000,r2	
 2d6:	01 46       	mov	r6,	r1	
 2d8:	ec 00       	adda	r0,	r12	
 2da:	00 00       	bra	@r0		
 2dc:	0b 11       	rra	r11		
 2de:	03 00       	.word	0x0003;	????	Illegal as address instr
 2e0:	00 01       	bra	@r1		
 2e2:	60 01 2f 00 	mova	r1,	&0x0002f
 2e6:	00 00       	bra	@r0		
 2e8:	01 08       	mova	@r8,	r1	
 2ea:	02 00       	mova	@r0,	r2	
 2ec:	00 0c       	bra	@r12		
 2ee:	3c 02 00 00 	mova	&0x0000,r12	
 2f2:	01 60       	addc	r0,	r1	
 2f4:	b8 00 00 00 	suba	#0x00000,r8	
 2f8:	0c 15       	pushm	#1,	r12	
 2fa:	02 00       	mova	@r0,	r2	
 2fc:	00 01       	bra	@r1		
 2fe:	60 cc       	bic.b	@r12,	r0	
 300:	01 00       	mova	@r0,	r1	
 302:	00 0d       	bra	@r13		
 304:	70 00 01 62 	mova	r0,	25089(r0);PC rel. 0x06507
 308:	b8 00 00 00 	suba	#0x00000,r8	
 30c:	00 0e       	bra	@r14		
 30e:	f1 01       	suba	r1,	r1	
 310:	00 00       	bra	@r0		
 312:	01 7a       	subc	r10,	r1	
 314:	01 2f       	jc	$-508    	;abs 0x118
 316:	00 00       	bra	@r0		
 318:	00 c0       	bic	r0,	r0	
 31a:	88 3c       	jmp	$+274    	;abs 0x42c
 31c:	8a 38       	jl	$+278    	;abs 0x432
 31e:	00 00       	bra	@r0		
 320:	00 fa       	and	r10,	r0	
 322:	02 00       	mova	@r0,	r2	
 324:	00 0f       	bra	@r15		
 326:	46 01       	rram.a	#1,	r6	
 328:	00 00       	bra	@r0		
 32a:	01 7a       	subc	r10,	r1	
 32c:	0a 03       	mova	#2,	r10	;r3 As==10
 32e:	00 00       	bra	@r0		
 330:	54 00       	rrcm	#1,	r4	
 332:	00 00       	bra	@r0		
 334:	0f 74       	subc	r4,	r15	
 336:	01 00       	mova	@r0,	r1	
 338:	00 01       	bra	@r1		
 33a:	7a c5       	bic.b	@r5+,	r10	
 33c:	00 00       	bra	@r0		
 33e:	00 66       	addc	r6,	r0	
 340:	00 00       	bra	@r0		
 342:	00 0f       	bra	@r15		
 344:	6c 02 00 00 	mova	r2,	&0xc0000
 348:	01 7a       	subc	r10,	r1	
 34a:	28 00 00 00 	mova	&0x00000,r8	
 34e:	79 00 00 00 	mova	r0,	0(r9)	;0x0000(r9)
 352:	0f 15       	pushm	#1,	r15	
 354:	02 00       	mova	@r0,	r2	
 356:	00 01       	bra	@r1		
 358:	7b cc       	bic.b	@r12+,	r11	
 35a:	01 00       	mova	@r0,	r1	
 35c:	00 8b       	sub	r11,	r0	
 35e:	00 00       	bra	@r0		
 360:	00 10       	rrc	r0		
 362:	de 02       	cmpa	r2,	r14	
 364:	00 00       	bra	@r0		
 366:	01 7d       	subc	r13,	r1	
 368:	2f 00 00 00 	mova	&0x00000,r15	
 36c:	fa 00       	suba	r0,	r10	
 36e:	00 00       	bra	@r0		
 370:	11 3c       	jmp	$+36     	;abs 0x394
 372:	02 00       	mova	@r0,	r2	
 374:	00 01       	bra	@r1		
 376:	7e 10       	rrc.b	@r14+		
 378:	03 00       	.word	0x0003;	????	Illegal as address instr
 37a:	00 02       	bra	#4		;r2 As==10
 37c:	91 66 10 0a 	addc	2576(r6),2(r1)	;0x0a10(r6), 0x0002(r1)
 380:	02 00 
 382:	00 01       	bra	@r1		
 384:	7f 2f       	jc	$-256    	;abs 0x284
 386:	00 00       	bra	@r0		
 388:	00 23       	jnz	$-510    	;abs 0x18a
 38a:	01 00       	mova	@r0,	r1	
 38c:	00 10       	rrc	r0		
 38e:	95 02 00 00 	cmpa	#0x20000,r5	
 392:	01 80       	sub	r0,	r1	
 394:	28 00 00 00 	mova	&0x00000,r8	
 398:	5b 01       	rram	#1,	r11	
 39a:	00 00       	bra	@r0		
 39c:	11 69 01 00 	addc	1(r9),	r1	;0x0001(r9)
 3a0:	00 01       	bra	@r1		
 3a2:	81 2f       	jc	$-252    	;abs 0x2a6
 3a4:	00 00       	bra	@r0		
 3a6:	00 01       	bra	@r1		
 3a8:	5a 12 d7 01 	push.b	471(r10)	;0x01d7(r10)
 3ac:	00 00       	bra	@r0		
 3ae:	dc 88 42 89 	sub.b	-30398(r8),-32511(r12);0x8942(r8), 0x8101(r12)
 3b2:	01 81 
 3b4:	d5 02       	cmpa	r2,	r5	
 3b6:	00 00       	bra	@r0		
 3b8:	13 f3       	.word	0xf313;	????	Illegal as 2-op instr
 3ba:	01 00       	mova	@r0,	r1	
 3bc:	00 86       	sub	r6,	r0	
 3be:	01 00       	mova	@r0,	r1	
 3c0:	00 13       	reti			
 3c2:	e8 01       	adda	r1,	r8	
 3c4:	00 00       	bra	@r0		
 3c6:	bd 01 00 00 	suba	#0x10000,r13	
 3ca:	14 dc 88 42 	bis	17032(r12),r4	;0x4288(r12)
 3ce:	89 15       	pushm	#9,	r9	
 3d0:	fe 01       	suba	r1,	r14	
 3d2:	00 00       	bra	@r0		
 3d4:	d1 01       	cmpa	r1,	r1	
 3d6:	00 00       	bra	@r0		
 3d8:	00 00       	bra	@r0		
 3da:	14 5c 89 d4 	add	-11127(r12),r4	;0xd489(r12)
 3de:	89 10       	swpb	r9		
 3e0:	39 01 00 00 	mova	0(r1),	r9	;0x0000(r1)
 3e4:	01 89       	sub	r9,	r1	
 3e6:	be 00 00 00 	suba	#0x00000,r14	
 3ea:	23 02       	.word	0x0223;	????	Illegal as address instr
 3ec:	00 00       	bra	@r0		
 3ee:	16 6c 65 6e 	addc	28261(r12),r6	;0x6e65(r12)
 3f2:	00 01       	bra	@r1		
 3f4:	8a 28       	jnc	$+278    	;abs 0x50a
 3f6:	00 00       	bra	@r0		
 3f8:	00 38       	jl	$+2      	;abs 0x3fa
 3fa:	02 00       	mova	@r0,	r2	
 3fc:	00 00       	bra	@r0		
 3fe:	00 17       	popm	#1,	r0	
 400:	01 2f       	jc	$-508    	;abs 0x204
 402:	00 00       	bra	@r0		
 404:	00 0a       	bra	@r10		
 406:	03 00       	.word	0x0003;	????	Illegal as address instr
 408:	00 18       	.word	0x1800;	????	
 40a:	2f 00 00 00 	mova	&0x00000,r15	
 40e:	00 05       	bra	@r5		
 410:	02 fa       	and	r10,	r2	
 412:	02 00       	mova	@r0,	r2	
 414:	00 19       	.word	0x1900;	????	
 416:	be 00 00 00 	suba	#0x00000,r14	
 41a:	20 03 00 00 	bra	&0x30000	
 41e:	1a 28       	jnc	$+54     	;abs 0x454
 420:	00 00       	bra	@r0		
 422:	00 01       	bra	@r1		
 424:	00 1b 01 8c 	subx	r12,	r1	
 428:	02 00       	mova	@r0,	r2	
 42a:	00 01       	bra	@r1		
 42c:	f9 01       	suba	r1,	r9	
 42e:	2f 00 00 00 	mova	&0x00000,r15	
 432:	3c 8a       	sub	@r10+,	r12	
 434:	d8 90 4a 02 	cmp.b	586(r0),0(r8)	;PC rel. 0x0680, 0x0000(r8)
 438:	00 00 
 43a:	51 05       	rram	#2,	r1	
 43c:	00 00       	bra	@r0		
 43e:	0f 46       	mov	r6,	r15	
 440:	01 00       	mova	@r0,	r1	
 442:	00 01       	bra	@r1		
 444:	f9 0a       	suba	r10,	r9	
 446:	03 00       	.word	0x0003;	????	Illegal as address instr
 448:	00 af       	dadd	r15,	r0	
 44a:	02 00       	mova	@r0,	r2	
 44c:	00 0f       	bra	@r15		
 44e:	09 01       	mova	@r1,	r9	
 450:	00 00       	bra	@r0		
 452:	01 f9       	and	r9,	r1	
 454:	c5 00       	mova	r0,	r5	
 456:	00 00       	bra	@r0		
 458:	c2 02       	mova	r2,	r2	
 45a:	00 00       	bra	@r0		
 45c:	0f 37       	jge	$-480    	;abs 0x27c
 45e:	02 00       	mova	@r0,	r2	
 460:	00 01       	bra	@r1		
 462:	f9 e1 00 00 	xor.b	@r1+,	0(r9)	;0x0000(r9)
 466:	00 ee       	xor	r14,	r0	
 468:	02 00       	mova	@r0,	r2	
 46a:	00 10       	rrc	r0		
 46c:	de 02       	cmpa	r2,	r14	
 46e:	00 00       	bra	@r0		
 470:	01 fb       	and	r11,	r1	
 472:	2f 00 00 00 	mova	&0x00000,r15	
 476:	92 03 00 00 	cmpa	#0x30000,r2	
 47a:	1c 02       	mova	#8,	r12	;r2 As==11
 47c:	01 fd       	and	r13,	r1	
 47e:	8a 03 00 00 	mova	#0x30000,r10	
 482:	1d 7b 01 00 	subc	1(r11),	r13	;0x0001(r11)
 486:	00 00       	bra	@r0		
 488:	1d e7 01 00 	xor	1(r7),	r13	;0x0001(r7)
 48c:	00 01       	bra	@r1		
 48e:	00 10       	rrc	r0		
 490:	22 01 00 00 	mova	&0x10000,r2	
 494:	01 fd       	and	r13,	r1	
 496:	75 03 00 00 	mova	#0,	0(r5)	;r3 As==00, 0x0000(r5)
 49a:	bc 03 00 00 	suba	#0x30000,r12	
 49e:	10 de 01 00 	bis	1(r14),	r0	;0x0001(r14)
 4a2:	00 01       	bra	@r1		
 4a4:	fe 28       	jnc	$+510    	;abs 0x6a2
 4a6:	00 00       	bra	@r0		
 4a8:	00 27       	jz	$-510    	;abs 0x2aa
 4aa:	04 00       	mova	@r0,	r4	
 4ac:	00 10       	rrc	r0		
 4ae:	6c 02 00 00 	mova	r2,	&0xc0000
 4b2:	01 ff       	and	r15,	r1	
 4b4:	28 00 00 00 	mova	&0x00000,r8	
 4b8:	7f 04 00 00 	mova	r4,	0(r15)	;0x0000(r15)
 4bc:	1e 15       	pushm	#2,	r14	
 4be:	02 00       	mova	@r0,	r2	
 4c0:	00 01       	bra	@r1		
 4c2:	00 01       	bra	@r1		
 4c4:	cc 01       	mova	r1,	r12	
 4c6:	00 00       	bra	@r0		
 4c8:	03 91       	.word	0x9103;	????	Illegal as 2-op instr
 4ca:	9a 7f 1f b2 	subc	-19937(r15),1(r10)	;0xb21f(r15), 0x0001(r10)
 4ce:	01 00 
 4d0:	00 01       	bra	@r1		
 4d2:	01 01       	mova	@r1,	r1	
 4d4:	c5 00       	mova	r0,	r5	
 4d6:	00 00       	bra	@r0		
 4d8:	ab 04 00 00 	adda	#0x40000,r11	
 4dc:	1f 74 01 00 	subc	1(r4),	r15	;0x0001(r4)
 4e0:	00 01       	bra	@r1		
 4e2:	02 01       	mova	@r1,	r2	
 4e4:	b8 00 00 00 	suba	#0x00000,r8	
 4e8:	f3 04       	.word	0x04f3;	????	Illegal as address instr
 4ea:	00 00       	bra	@r0		
 4ec:	1f 78 02 00 	subc	2(r8),	r15	;0x0002(r8)
 4f0:	00 01       	bra	@r1		
 4f2:	03 01       	.word	0x0103;	????	Illegal as address instr
 4f4:	be 00 00 00 	suba	#0x00000,r14	
 4f8:	45 05       	rram.a	#2,	r5	
 4fa:	00 00       	bra	@r0		
 4fc:	1f 4a 02 00 	mov	2(r10),	r15	;0x0002(r10)
 500:	00 01       	bra	@r1		
 502:	04 01       	mova	@r1,	r4	
 504:	2f 00 00 00 	mova	&0x00000,r15	
 508:	b9 05 00 00 	suba	#0x50000,r9	
 50c:	1f d9 01 00 	bis	1(r9),	r15	;0x0001(r9)
 510:	00 01       	bra	@r1		
 512:	05 01       	mova	@r1,	r5	
 514:	51 05       	rram	#2,	r1	
 516:	00 00       	bra	@r0		
 518:	ce 05       	mova	r5,	r14	
 51a:	00 00       	bra	@r0		
 51c:	1f 50 02 00 	add	2(r0),	r15	;PC rel. 0x0520
 520:	00 01       	bra	@r1		
 522:	06 01       	mova	@r1,	r6	
 524:	51 05       	rram	#2,	r1	
 526:	00 00       	bra	@r0		
 528:	0a 06       	mova	@r6,	r10	
 52a:	00 00       	bra	@r0		
 52c:	1f 82 01 00 	sub	&0x0001,r15	
 530:	00 01       	bra	@r1		
 532:	07 01       	mova	@r1,	r7	
 534:	51 05       	rram	#2,	r1	
 536:	00 00       	bra	@r0		
 538:	36 06 00 00 	mova	0(r6),	r6	;0x0000(r6)
 53c:	1f 9c 01 00 	cmp	1(r12),	r15	;0x0001(r12)
 540:	00 01       	bra	@r1		
 542:	08 01       	mova	@r1,	r8	
 544:	51 05       	rram	#2,	r1	
 546:	00 00       	bra	@r0		
 548:	62 06 00 00 	mova	r6,	&0x20000
 54c:	20 08 01 09 	bra	&0x80901	
 550:	01 81       	sub	r1,	r1	
 552:	04 00       	mova	@r0,	r4	
 554:	00 21       	jnz	$+514    	;abs 0x756
 556:	69 31       	jn	$+724    	;abs 0x82a
 558:	36 00 01 0b 	mova	2817(r0),r6	;PC rel. 0x0105b
 55c:	01 3d       	jmp	$+516    	;abs 0x760
 55e:	00 00       	bra	@r0		
 560:	00 21       	jnz	$+514    	;abs 0x762
 562:	70 74       	subc.b	@r4+,	r0	
 564:	72 00 01 0c 	mova	r0,	&0x0c01	
 568:	01 a6       	dadd	r6,	r1	
 56a:	00 00       	bra	@r0		
 56c:	00 21       	jnz	$+514    	;abs 0x76e
 56e:	69 33       	jn	$-300    	;abs 0x442
 570:	32 00 01 0e 	mova	3585(r0),r2	;PC rel. 0x01373
 574:	01 48       	mov	r8,	r1	
 576:	00 00       	bra	@r0		
 578:	00 21       	jnz	$+514    	;abs 0x77a
 57a:	69 36       	jge	$-812    	;abs 0x24e
 57c:	34 00 01 11 	mova	4353(r0),r4	;PC rel. 0x0167f
 580:	01 53       	add	#0,	r1	;r3 As==00
 582:	00 00       	bra	@r0		
 584:	00 00       	bra	@r0		
 586:	1e 03       	mova	#-1,	r14	;r3 As==11
 588:	02 00       	mova	@r0,	r2	
 58a:	00 01       	bra	@r1		
 58c:	13 01       	.word	0x0113;	????	Illegal as address instr
 58e:	47 04       	rrcm.a	#2,	r7	
 590:	00 00       	bra	@r0		
 592:	02 71       	subc	r1,	r2	
 594:	22 1e       	.word	0x1e22;	????	
 596:	43 02       	rlam.a	#1,	#0	;r3 As==00
 598:	00 00       	bra	@r0		
 59a:	01 14       	pushm.a	#1,	r1	
 59c:	01 58       	add	r8,	r1	
 59e:	05 00       	mova	@r0,	r5	
 5a0:	00 03       	bra	#2		;r3 As==10
 5a2:	91 9e 7f 22 	cmp	8831(r14),626(r1)	;0x227f(r14), 0x0272(r1)
 5a6:	72 02 
 5a8:	00 00       	bra	@r0		
 5aa:	01 26       	jz	$-1020   	;abs 0x1ae
 5ac:	01 c6       	bic	r6,	r1	
 5ae:	8a 22       	jnz	$-746    	;abs 0x2c4
 5b0:	05 01       	mova	@r1,	r5	
 5b2:	00 00       	bra	@r0		
 5b4:	01 42       	mov	r2,	r1	
 5b6:	02 70       	subc	r0,	r2	
 5b8:	8b 22       	jnz	$-744    	;abs 0x2d0
 5ba:	ee 02       	adda	r2,	r14	
 5bc:	00 00       	bra	@r0		
 5be:	01 a7       	dadd	r7,	r1	
 5c0:	01 a4       	dadd	r4,	r1	
 5c2:	8c 22       	jnz	$-742    	;abs 0x2dc
 5c4:	05 03       	mova	#2,	r5	;r3 As==10
 5c6:	00 00       	bra	@r0		
 5c8:	01 f2       	and	r2,	r1	
 5ca:	01 cc       	bic	r12,	r1	
 5cc:	8d 22       	jnz	$-740    	;abs 0x2e8
 5ce:	fd 01       	suba	r1,	r13	
 5d0:	00 00       	bra	@r0		
 5d2:	01 d8       	bis	r8,	r1	
 5d4:	01 38       	jl	$+4      	;abs 0x5d8
 5d6:	8d 23       	jnz	$-228    	;abs 0x4f2
 5d8:	00 00       	bra	@r0		
 5da:	00 00       	bra	@r0		
 5dc:	ec 04       	adda	r4,	r12	
 5de:	00 00       	bra	@r0		
 5e0:	1f 65 02 00 	addc	2(r5),	r15	;0x0002(r5)
 5e4:	00 01       	bra	@r1		
 5e6:	33 02       	.word	0x0233;	????	Illegal as address instr
 5e8:	2f 00 00 00 	mova	&0x00000,r15	
 5ec:	8e 06 00 00 	mova	#0x60000,r14	
 5f0:	00 23       	jnz	$-510    	;abs 0x3f2
 5f2:	0c 00       	mova	@r0,	r12	
 5f4:	00 00       	bra	@r0		
 5f6:	06 05       	mova	@r5,	r6	
 5f8:	00 00       	bra	@r0		
 5fa:	24 76       	subc	@r6,	r4	
 5fc:	61 6c       	addc.b	@r12,	r1	
 5fe:	00 01       	bra	@r1		
 600:	6f 01 2f 00 	mova	r1,	&0xf002f
 604:	00 00       	bra	@r0		
 606:	99 06 00 00 	cmpa	#0x60000,r9	
 60a:	00 25       	jz	$+514    	;abs 0x80c
 60c:	58 8e d6 8e 	sub.b	-28970(r14),r8	;0x8ed6(r14)
 610:	20 05 00 00 	bra	&0x50000	
 614:	1f d8 02 00 	bis	2(r8),	r15	;0x0002(r8)
 618:	00 01       	bra	@r1		
 61a:	20 02 2f 00 	bra	&0x2002f	
 61e:	00 00       	bra	@r0		
 620:	ae 06 00 00 	adda	#0x60000,r14	
 624:	00 25       	jz	$+514    	;abs 0x826
 626:	22 8f       	sub	@r15,	r2	
 628:	7e 8f       	sub.b	@r15+,	r14	
 62a:	3a 05 00 00 	mova	0(r5),	r10	;0x0000(r5)
 62e:	1f d8 02 00 	bis	2(r8),	r15	;0x0002(r8)
 632:	00 01       	bra	@r1		
 634:	25 02 2f 00 	mova	&0x2002f,r5	
 638:	00 00       	bra	@r0		
 63a:	b9 06 00 00 	suba	#0x60000,r9	
 63e:	00 14       	pushm.a	#1,	r0	
 640:	a4 8f ea 8f 	sub	@r15,	-28694(r4);0x8fea(r4)
 644:	1f d8 02 00 	bis	2(r8),	r15	;0x0002(r8)
 648:	00 01       	bra	@r1		
 64a:	28 02 2f 00 	mova	&0x2002f,r8	
 64e:	00 00       	bra	@r0		
 650:	c4 06       	mova	r6,	r4	
 652:	00 00       	bra	@r0		
 654:	00 00       	bra	@r0		
 656:	02 01       	mova	@r1,	r2	
 658:	02 5f       	add	r15,	r2	
 65a:	02 00       	mova	@r0,	r2	
 65c:	00 26       	jz	$-1022   	;abs 0x25e
 65e:	be 00 00 00 	suba	#0x00000,r14	
 662:	1a 28       	jnc	$+54     	;abs 0x698
 664:	00 00       	bra	@r0		
 666:	00 17       	popm	#1,	r0	
 668:	00 00       	bra	@r0		
 66a:	92 00 00 00 	cmpa	#0x00000,r2	
 66e:	02 00       	mova	@r0,	r2	
 670:	bf 02 00 00 	suba	#0x20000,r15	
 674:	02 01       	mova	@r1,	r2	
 676:	81 00 00 00 	mova	#0x00000,r1	
 67a:	01 2b       	jnc	$-508    	;abs 0x47e
 67c:	03 00       	.word	0x0003;	????	Illegal as address instr
 67e:	00 bb       	bit	r11,	r0	
 680:	00 00       	bra	@r0		
 682:	00 d8       	bis	r8,	r0	
 684:	90 04 91 5a 	cmpa	#0x45a91,r0	
 688:	03 00       	.word	0x0003;	????	Illegal as address instr
 68a:	00 02       	bra	#4		;r2 As==10
 68c:	04 05       	mova	@r5,	r4	
 68e:	78 00 00 00 	mova	r0,	0(r8)	;0x0000(r8)
 692:	02 02       	mova	#4,	r2	;r2 As==10
 694:	07 66       	addc	r6,	r7	
 696:	00 00       	bra	@r0		
 698:	00 03       	bra	#2		;r3 As==10
 69a:	02 05       	mova	@r5,	r2	
 69c:	69 6e       	addc.b	@r14,	r9	
 69e:	74 00 02 01 	mova	r0,	258(r4)	;0x0102(r4)
 6a2:	06 3d       	jmp	$+526    	;abs 0x8b0
 6a4:	00 00       	bra	@r0		
 6a6:	00 02       	bra	#4		;r2 As==10
 6a8:	08 05       	mova	@r5,	r8	
 6aa:	73 00       	.word	0x0073;	????	Illegal as address instr
 6ac:	00 00       	bra	@r0		
 6ae:	02 01       	mova	@r1,	r2	
 6b0:	08 3b       	jl	$-494    	;abs 0x4c2
 6b2:	00 00       	bra	@r0		
 6b4:	00 02       	bra	#4		;r2 As==10
 6b6:	04 07       	mova	@r7,	r4	
 6b8:	61 00 00 00 	mova	r0,	&0x10000
 6bc:	02 08       	mova	@r8,	r2	
 6be:	07 5c       	add	r12,	r7	
 6c0:	00 00       	bra	@r0		
 6c2:	00 02       	bra	#4		;r2 As==10
 6c4:	02 07       	mova	@r7,	r2	
 6c6:	49 00       	rrcm.a	#1,	r9	
 6c8:	00 00       	bra	@r0		
 6ca:	02 01       	mova	@r1,	r2	
 6cc:	06 44       	mov	r4,	r6	
 6ce:	00 00       	bra	@r0		
 6d0:	00 04       	bra	@r4		
 6d2:	02 6d       	addc	r13,	r2	
 6d4:	00 00       	bra	@r0		
 6d6:	00 05       	bra	@r5		
 6d8:	60 00 00 00 	mova	r0,	&0x00000
 6dc:	06 01       	mova	@r1,	r6	
 6de:	26 03 00 00 	mova	&0x30000,r6	
 6e2:	01 23       	jnz	$-508    	;abs 0x4e6
 6e4:	01 2f       	jc	$-508    	;abs 0x4e8
 6e6:	00 00       	bra	@r0		
 6e8:	00 d8       	bis	r8,	r0	
 6ea:	90 04 91 cf 	cmpa	#0x4cf91,r0	
 6ee:	06 00       	mova	@r0,	r6	
 6f0:	00 07       	bra	@r7		
 6f2:	73 00       	.word	0x0073;	????	Illegal as address instr
 6f4:	01 23       	jnz	$-508    	;abs 0x4f8
 6f6:	67 00 00 00 	mova	r0,	&0x70000
 6fa:	e3 06       	.word	0x06e3;	????	Illegal as address instr
 6fc:	00 00       	bra	@r0		
 6fe:	00 00       	bra	@r0		
 700:	bc 00 00 00 	suba	#0x00000,r12	
 704:	02 00       	mova	@r0,	r2	
 706:	1f 03       	mova	#-1,	r15	;r3 As==11
 708:	00 00       	bra	@r0		
 70a:	02 01       	mova	@r1,	r2	
 70c:	a7 03 00 00 	adda	#0x30000,r7	
 710:	04 91       	cmp	r1,	r4	
 712:	26 91       	cmp	@r1,	r6	
 714:	2e 2e       	jc	$-930    	;abs 0x372
 716:	2f 2e       	jc	$-928    	;abs 0x376
 718:	2e 2f       	jc	$-418    	;abs 0x576
 71a:	2e 2e       	jc	$-930    	;abs 0x378
 71c:	2f 2e       	jc	$-928    	;abs 0x37c
 71e:	2e 2f       	jc	$-418    	;abs 0x57c
 720:	2e 2e       	jc	$-930    	;abs 0x37e
 722:	2f 2e       	jc	$-928    	;abs 0x382
 724:	2e 2f       	jc	$-418    	;abs 0x582
 726:	67 63       	addc.b	#2,	r7	;r3 As==10
 728:	63 2d       	jc	$+712    	;abs 0x9f0
 72a:	34 2e       	jc	$-918    	;abs 0x394
 72c:	36 2e       	jc	$-914    	;abs 0x39a
 72e:	33 2f       	jc	$-408    	;abs 0x596
 730:	6c 69       	addc.b	@r9,	r12	
 732:	62 67       	addc.b	@r7,	r2	
 734:	63 63       	.word	0x6363;	????	Illegal as 2-op instr
 736:	2f 2e       	jc	$-928    	;abs 0x396
 738:	2e 2f       	jc	$-418    	;abs 0x596
 73a:	67 63       	addc.b	#2,	r7	;r3 As==10
 73c:	63 2f       	jc	$-312    	;abs 0x604
 73e:	63 6f       	.word	0x6f63;	????	Illegal as 2-op instr
 740:	6e 66       	addc.b	@r6,	r14	
 742:	69 67       	addc.b	@r7,	r9	
 744:	2f 6d       	addc	@r13,	r15	
 746:	73 70       	.word	0x7073;	????	Illegal as 2-op instr
 748:	34 33       	jn	$-406    	;abs 0x5b2
 74a:	30 2f       	jc	$-414    	;abs 0x5ac
 74c:	6c 69       	addc.b	@r9,	r12	
 74e:	62 67       	addc.b	@r7,	r2	
 750:	63 63       	.word	0x6363;	????	Illegal as 2-op instr
 752:	2e 53       	incd	r14		
 754:	00 2f       	jc	$-510    	;abs 0x556
 756:	75 73       	subc.b	#-1,	r5	;r3 As==11
 758:	72 2f       	jc	$-282    	;abs 0x63e
 75a:	6c 6f       	addc.b	@r15,	r12	
 75c:	63 61       	.word	0x6163;	????	Illegal as 2-op instr
 75e:	6c 2f       	jc	$-294    	;abs 0x638
 760:	6d 73       	subc.b	#2,	r13	;r3 As==10
 762:	70 34       	jge	$+226    	;abs 0x844
 764:	33 30       	jn	$+104    	;abs 0x7cc
 766:	2f 6d       	addc	@r13,	r15	
 768:	73 70       	.word	0x7073;	????	Illegal as 2-op instr
 76a:	67 63       	addc.b	#2,	r7	;r3 As==10
 76c:	63 2d       	jc	$+712    	;abs 0xa34
 76e:	69 6e       	addc.b	@r14,	r9	
 770:	73 74       	.word	0x7473;	????	Illegal as 2-op instr
 772:	61 6c       	addc.b	@r12,	r1	
 774:	6c 2f       	jc	$-294    	;abs 0x64e
 776:	6d 73       	subc.b	#2,	r13	;r3 As==10
 778:	70 67       	addc.b	@r7+,	r0	
 77a:	63 63       	.word	0x6363;	????	Illegal as 2-op instr
 77c:	2d 32       	jn	$-932    	;abs 0x3d8
 77e:	30 31       	jn	$+610    	;abs 0x9e0
 780:	32 30       	jn	$+102    	;abs 0x7e6
 782:	34 30       	jn	$+106    	;abs 0x7ec
 784:	36 2f       	jc	$-402    	;abs 0x5f2
 786:	42 55       	add.b	r5,	r2	
 788:	49 4c       	mov.b	r12,	r9	
 78a:	44 2f       	jc	$-374    	;abs 0x614
 78c:	67 63       	addc.b	#2,	r7	;r3 As==10
 78e:	63 2f       	jc	$-312    	;abs 0x656
 790:	6d 73       	subc.b	#2,	r13	;r3 As==10
 792:	70 34       	jge	$+226    	;abs 0x874
 794:	33 30       	jn	$+104    	;abs 0x7fc
 796:	2f 6d       	addc	@r13,	r15	
 798:	63 70       	.word	0x7063;	????	Illegal as 2-op instr
 79a:	75 2d       	jc	$+748    	;abs 0xa86
 79c:	34 33       	jn	$-406    	;abs 0x606
 79e:	30 78       	subc	@r8+,	r0	
 7a0:	2f 6d       	addc	@r13,	r15	
 7a2:	6d 70       	subc.b	@r0,	r13	
 7a4:	79 2d       	jc	$+756    	;abs 0xa98
 7a6:	31 36       	jge	$-924    	;abs 0x40a
 7a8:	2f 6c       	addc	@r12,	r15	
 7aa:	69 62       	addc.b	#4,	r9	;r2 As==10
 7ac:	67 63       	addc.b	#2,	r7	;r3 As==10
 7ae:	63 00 47 4e 	mova	r0,	&0x34e47
 7b2:	55 20       	jnz	$+172    	;abs 0x85e
 7b4:	41 53       	add.b	#0,	r1	;r3 As==00
 7b6:	20 32       	jn	$-958    	;abs 0x3f8
 7b8:	2e 32       	jn	$-930    	;abs 0x416
 7ba:	31 2e       	jc	$-924    	;abs 0x41e
 7bc:	31 00 01 80 	mova	-32767(r0),r1	;PC rel. 0xf87bf
 7c0:	bc 00 00 00 	suba	#0x00000,r12	
 7c4:	02 00       	mova	@r0,	r2	
 7c6:	33 03       	.word	0x0333;	????	Illegal as address instr
 7c8:	00 00       	bra	@r0		
 7ca:	02 01       	mova	@r1,	r2	
 7cc:	24 04 00 00 	mova	&0x40000,r4	
 7d0:	26 91       	cmp	@r1,	r6	
 7d2:	5e 91 2e 2e 	cmp.b	11822(r1),r14	;0x2e2e(r1)
 7d6:	2f 2e       	jc	$-928    	;abs 0x436
 7d8:	2e 2f       	jc	$-418    	;abs 0x636
 7da:	2e 2e       	jc	$-930    	;abs 0x438
 7dc:	2f 2e       	jc	$-928    	;abs 0x43c
 7de:	2e 2f       	jc	$-418    	;abs 0x63c
 7e0:	2e 2e       	jc	$-930    	;abs 0x43e
 7e2:	2f 2e       	jc	$-928    	;abs 0x442
 7e4:	2e 2f       	jc	$-418    	;abs 0x642
 7e6:	67 63       	addc.b	#2,	r7	;r3 As==10
 7e8:	63 2d       	jc	$+712    	;abs 0xab0
 7ea:	34 2e       	jc	$-918    	;abs 0x454
 7ec:	36 2e       	jc	$-914    	;abs 0x45a
 7ee:	33 2f       	jc	$-408    	;abs 0x656
 7f0:	6c 69       	addc.b	@r9,	r12	
 7f2:	62 67       	addc.b	@r7,	r2	
 7f4:	63 63       	.word	0x6363;	????	Illegal as 2-op instr
 7f6:	2f 2e       	jc	$-928    	;abs 0x456
 7f8:	2e 2f       	jc	$-418    	;abs 0x656
 7fa:	67 63       	addc.b	#2,	r7	;r3 As==10
 7fc:	63 2f       	jc	$-312    	;abs 0x6c4
 7fe:	63 6f       	.word	0x6f63;	????	Illegal as 2-op instr
 800:	6e 66       	addc.b	@r6,	r14	
 802:	69 67       	addc.b	@r7,	r9	
 804:	2f 6d       	addc	@r13,	r15	
 806:	73 70       	.word	0x7073;	????	Illegal as 2-op instr
 808:	34 33       	jn	$-406    	;abs 0x672
 80a:	30 2f       	jc	$-414    	;abs 0x66c
 80c:	6c 69       	addc.b	@r9,	r12	
 80e:	62 67       	addc.b	@r7,	r2	
 810:	63 63       	.word	0x6363;	????	Illegal as 2-op instr
 812:	2e 53       	incd	r14		
 814:	00 2f       	jc	$-510    	;abs 0x616
 816:	75 73       	subc.b	#-1,	r5	;r3 As==11
 818:	72 2f       	jc	$-282    	;abs 0x6fe
 81a:	6c 6f       	addc.b	@r15,	r12	
 81c:	63 61       	.word	0x6163;	????	Illegal as 2-op instr
 81e:	6c 2f       	jc	$-294    	;abs 0x6f8
 820:	6d 73       	subc.b	#2,	r13	;r3 As==10
 822:	70 34       	jge	$+226    	;abs 0x904
 824:	33 30       	jn	$+104    	;abs 0x88c
 826:	2f 6d       	addc	@r13,	r15	
 828:	73 70       	.word	0x7073;	????	Illegal as 2-op instr
 82a:	67 63       	addc.b	#2,	r7	;r3 As==10
 82c:	63 2d       	jc	$+712    	;abs 0xaf4
 82e:	69 6e       	addc.b	@r14,	r9	
 830:	73 74       	.word	0x7473;	????	Illegal as 2-op instr
 832:	61 6c       	addc.b	@r12,	r1	
 834:	6c 2f       	jc	$-294    	;abs 0x70e
 836:	6d 73       	subc.b	#2,	r13	;r3 As==10
 838:	70 67       	addc.b	@r7+,	r0	
 83a:	63 63       	.word	0x6363;	????	Illegal as 2-op instr
 83c:	2d 32       	jn	$-932    	;abs 0x498
 83e:	30 31       	jn	$+610    	;abs 0xaa0
 840:	32 30       	jn	$+102    	;abs 0x8a6
 842:	34 30       	jn	$+106    	;abs 0x8ac
 844:	36 2f       	jc	$-402    	;abs 0x6b2
 846:	42 55       	add.b	r5,	r2	
 848:	49 4c       	mov.b	r12,	r9	
 84a:	44 2f       	jc	$-374    	;abs 0x6d4
 84c:	67 63       	addc.b	#2,	r7	;r3 As==10
 84e:	63 2f       	jc	$-312    	;abs 0x716
 850:	6d 73       	subc.b	#2,	r13	;r3 As==10
 852:	70 34       	jge	$+226    	;abs 0x934
 854:	33 30       	jn	$+104    	;abs 0x8bc
 856:	2f 6d       	addc	@r13,	r15	
 858:	63 70       	.word	0x7063;	????	Illegal as 2-op instr
 85a:	75 2d       	jc	$+748    	;abs 0xb46
 85c:	34 33       	jn	$-406    	;abs 0x6c6
 85e:	30 78       	subc	@r8+,	r0	
 860:	2f 6d       	addc	@r13,	r15	
 862:	6d 70       	subc.b	@r0,	r13	
 864:	79 2d       	jc	$+756    	;abs 0xb58
 866:	31 36       	jge	$-924    	;abs 0x4ca
 868:	2f 6c       	addc	@r12,	r15	
 86a:	69 62       	addc.b	#4,	r9	;r2 As==10
 86c:	67 63       	addc.b	#2,	r7	;r3 As==10
 86e:	63 00 47 4e 	mova	r0,	&0x34e47
 872:	55 20       	jnz	$+172    	;abs 0x91e
 874:	41 53       	add.b	#0,	r1	;r3 As==00
 876:	20 32       	jn	$-958    	;abs 0x4b8
 878:	2e 32       	jn	$-930    	;abs 0x4d6
 87a:	31 2e       	jc	$-924    	;abs 0x4de
 87c:	31 00 01 80 	mova	-32767(r0),r1	;PC rel. 0xf887f
 880:	bc 00 00 00 	suba	#0x00000,r12	
 884:	02 00       	mova	@r0,	r2	
 886:	47 03       	rrum.a	#1,	r7	
 888:	00 00       	bra	@r0		
 88a:	02 01       	mova	@r1,	r2	
 88c:	ac 04 00 00 	adda	#0x40000,r12	
 890:	5e 91 1a 92 	cmp.b	-28134(r1),r14	;0x921a(r1)
 894:	2e 2e       	jc	$-930    	;abs 0x4f2
 896:	2f 2e       	jc	$-928    	;abs 0x4f6
 898:	2e 2f       	jc	$-418    	;abs 0x6f6
 89a:	2e 2e       	jc	$-930    	;abs 0x4f8
 89c:	2f 2e       	jc	$-928    	;abs 0x4fc
 89e:	2e 2f       	jc	$-418    	;abs 0x6fc
 8a0:	2e 2e       	jc	$-930    	;abs 0x4fe
 8a2:	2f 2e       	jc	$-928    	;abs 0x502
 8a4:	2e 2f       	jc	$-418    	;abs 0x702
 8a6:	67 63       	addc.b	#2,	r7	;r3 As==10
 8a8:	63 2d       	jc	$+712    	;abs 0xb70
 8aa:	34 2e       	jc	$-918    	;abs 0x514
 8ac:	36 2e       	jc	$-914    	;abs 0x51a
 8ae:	33 2f       	jc	$-408    	;abs 0x716
 8b0:	6c 69       	addc.b	@r9,	r12	
 8b2:	62 67       	addc.b	@r7,	r2	
 8b4:	63 63       	.word	0x6363;	????	Illegal as 2-op instr
 8b6:	2f 2e       	jc	$-928    	;abs 0x516
 8b8:	2e 2f       	jc	$-418    	;abs 0x716
 8ba:	67 63       	addc.b	#2,	r7	;r3 As==10
 8bc:	63 2f       	jc	$-312    	;abs 0x784
 8be:	63 6f       	.word	0x6f63;	????	Illegal as 2-op instr
 8c0:	6e 66       	addc.b	@r6,	r14	
 8c2:	69 67       	addc.b	@r7,	r9	
 8c4:	2f 6d       	addc	@r13,	r15	
 8c6:	73 70       	.word	0x7073;	????	Illegal as 2-op instr
 8c8:	34 33       	jn	$-406    	;abs 0x732
 8ca:	30 2f       	jc	$-414    	;abs 0x72c
 8cc:	6c 69       	addc.b	@r9,	r12	
 8ce:	62 67       	addc.b	@r7,	r2	
 8d0:	63 63       	.word	0x6363;	????	Illegal as 2-op instr
 8d2:	2e 53       	incd	r14		
 8d4:	00 2f       	jc	$-510    	;abs 0x6d6
 8d6:	75 73       	subc.b	#-1,	r5	;r3 As==11
 8d8:	72 2f       	jc	$-282    	;abs 0x7be
 8da:	6c 6f       	addc.b	@r15,	r12	
 8dc:	63 61       	.word	0x6163;	????	Illegal as 2-op instr
 8de:	6c 2f       	jc	$-294    	;abs 0x7b8
 8e0:	6d 73       	subc.b	#2,	r13	;r3 As==10
 8e2:	70 34       	jge	$+226    	;abs 0x9c4
 8e4:	33 30       	jn	$+104    	;abs 0x94c
 8e6:	2f 6d       	addc	@r13,	r15	
 8e8:	73 70       	.word	0x7073;	????	Illegal as 2-op instr
 8ea:	67 63       	addc.b	#2,	r7	;r3 As==10
 8ec:	63 2d       	jc	$+712    	;abs 0xbb4
 8ee:	69 6e       	addc.b	@r14,	r9	
 8f0:	73 74       	.word	0x7473;	????	Illegal as 2-op instr
 8f2:	61 6c       	addc.b	@r12,	r1	
 8f4:	6c 2f       	jc	$-294    	;abs 0x7ce
 8f6:	6d 73       	subc.b	#2,	r13	;r3 As==10
 8f8:	70 67       	addc.b	@r7+,	r0	
 8fa:	63 63       	.word	0x6363;	????	Illegal as 2-op instr
 8fc:	2d 32       	jn	$-932    	;abs 0x558
 8fe:	30 31       	jn	$+610    	;abs 0xb60
 900:	32 30       	jn	$+102    	;abs 0x966
 902:	34 30       	jn	$+106    	;abs 0x96c
 904:	36 2f       	jc	$-402    	;abs 0x772
 906:	42 55       	add.b	r5,	r2	
 908:	49 4c       	mov.b	r12,	r9	
 90a:	44 2f       	jc	$-374    	;abs 0x794
 90c:	67 63       	addc.b	#2,	r7	;r3 As==10
 90e:	63 2f       	jc	$-312    	;abs 0x7d6
 910:	6d 73       	subc.b	#2,	r13	;r3 As==10
 912:	70 34       	jge	$+226    	;abs 0x9f4
 914:	33 30       	jn	$+104    	;abs 0x97c
 916:	2f 6d       	addc	@r13,	r15	
 918:	63 70       	.word	0x7063;	????	Illegal as 2-op instr
 91a:	75 2d       	jc	$+748    	;abs 0xc06
 91c:	34 33       	jn	$-406    	;abs 0x786
 91e:	30 78       	subc	@r8+,	r0	
 920:	2f 6d       	addc	@r13,	r15	
 922:	6d 70       	subc.b	@r0,	r13	
 924:	79 2d       	jc	$+756    	;abs 0xc18
 926:	31 36       	jge	$-924    	;abs 0x58a
 928:	2f 6c       	addc	@r12,	r15	
 92a:	69 62       	addc.b	#4,	r9	;r2 As==10
 92c:	67 63       	addc.b	#2,	r7	;r3 As==10
 92e:	63 00 47 4e 	mova	r0,	&0x34e47
 932:	55 20       	jnz	$+172    	;abs 0x9de
 934:	41 53       	add.b	#0,	r1	;r3 As==00
 936:	20 32       	jn	$-958    	;abs 0x578
 938:	2e 32       	jn	$-930    	;abs 0x596
 93a:	31 2e       	jc	$-924    	;abs 0x59e
 93c:	31 00 01 80 	mova	-32767(r0),r1	;PC rel. 0xf893f
 940:	8b 00 00 00 	mova	#0x00000,r11	
 944:	02 00       	mova	@r0,	r2	
 946:	5b 03       	rrum	#1,	r11	
 948:	00 00       	bra	@r0		
 94a:	02 01       	mova	@r1,	r2	
 94c:	62 05 00 00 	mova	r5,	&0x20000
 950:	00 80       	sub	r0,	r0	
 952:	0c 80       	sub	r0,	r12	
 954:	2e 2e       	jc	$-930    	;abs 0x5b2
 956:	2f 2e       	jc	$-928    	;abs 0x5b6
 958:	2e 2f       	jc	$-418    	;abs 0x7b6
 95a:	2e 2e       	jc	$-930    	;abs 0x5b8
 95c:	2f 67       	addc	@r7,	r15	
 95e:	63 63       	.word	0x6363;	????	Illegal as 2-op instr
 960:	2d 34       	jge	$+92     	;abs 0x9bc
 962:	2e 36       	jge	$-930    	;abs 0x5c0
 964:	2e 33       	jn	$-418    	;abs 0x7c2
 966:	2f 67       	addc	@r7,	r15	
 968:	63 63       	.word	0x6363;	????	Illegal as 2-op instr
 96a:	2f 63       	addc	#2,	r15	;r3 As==10
 96c:	6f 6e       	addc.b	@r14,	r15	
 96e:	66 69       	addc.b	@r9,	r6	
 970:	67 2f       	jc	$-304    	;abs 0x840
 972:	6d 73       	subc.b	#2,	r13	;r3 As==10
 974:	70 34       	jge	$+226    	;abs 0xa56
 976:	33 30       	jn	$+104    	;abs 0x9de
 978:	2f 63       	addc	#2,	r15	;r3 As==10
 97a:	72 74       	subc.b	@r4+,	r2	
 97c:	30 2e       	jc	$-926    	;abs 0x5de
 97e:	53 00       	rrcm	#1,	#0	;r3 As==00
 980:	2f 75       	subc	@r5,	r15	
 982:	73 72       	.word	0x7273;	????	Illegal as 2-op instr
 984:	2f 6c       	addc	@r12,	r15	
 986:	6f 63       	addc.b	#2,	r15	;r3 As==10
 988:	61 6c       	addc.b	@r12,	r1	
 98a:	2f 6d       	addc	@r13,	r15	
 98c:	73 70       	.word	0x7073;	????	Illegal as 2-op instr
 98e:	34 33       	jn	$-406    	;abs 0x7f8
 990:	30 2f       	jc	$-414    	;abs 0x7f2
 992:	6d 73       	subc.b	#2,	r13	;r3 As==10
 994:	70 67       	addc.b	@r7+,	r0	
 996:	63 63       	.word	0x6363;	????	Illegal as 2-op instr
 998:	2d 69       	addc	@r9,	r13	
 99a:	6e 73       	subc.b	#2,	r14	;r3 As==10
 99c:	74 61       	addc.b	@r1+,	r4	
 99e:	6c 6c       	addc.b	@r12,	r12	
 9a0:	2f 6d       	addc	@r13,	r15	
 9a2:	73 70       	.word	0x7073;	????	Illegal as 2-op instr
 9a4:	67 63       	addc.b	#2,	r7	;r3 As==10
 9a6:	63 2d       	jc	$+712    	;abs 0xc6e
 9a8:	32 30       	jn	$+102    	;abs 0xa0e
 9aa:	31 32       	jn	$-924    	;abs 0x60e
 9ac:	30 34       	jge	$+98     	;abs 0xa0e
 9ae:	30 36       	jge	$-926    	;abs 0x610
 9b0:	2f 42       	mov	#4,	r15	;r2 As==10
 9b2:	55 49 4c 44 	mov.b	17484(r9),r5	;0x444c(r9)
 9b6:	2f 67       	addc	@r7,	r15	
 9b8:	63 63       	.word	0x6363;	????	Illegal as 2-op instr
 9ba:	2f 67       	addc	@r7,	r15	
 9bc:	63 63       	.word	0x6363;	????	Illegal as 2-op instr
 9be:	00 47       	br	r7		
 9c0:	4e 55       	add.b	r5,	r14	
 9c2:	20 41       	br	@r1		
 9c4:	53 20       	jnz	$+168    	;abs 0xa6c
 9c6:	32 2e       	jc	$-922    	;abs 0x62c
 9c8:	32 31       	jn	$+614    	;abs 0xc2e
 9ca:	2e 31       	jn	$+606    	;abs 0xc28
 9cc:	00 01       	bra	@r1		
 9ce:	80 8b 00 00 	sub	r11,	0(r0)	;PC rel. 0x09d0
 9d2:	00 02       	bra	#4		;r2 As==10
 9d4:	00 6f       	addc	r15,	r0	
 9d6:	03 00       	.word	0x0003;	????	Illegal as address instr
 9d8:	00 02       	bra	#4		;r2 As==10
 9da:	01 be       	bit	r14,	r1	
 9dc:	05 00       	mova	@r0,	r5	
 9de:	00 0c       	bra	@r12		
 9e0:	80 10       	swpb	r0		
 9e2:	80 2e       	jc	$-766    	;abs 0x6e4
 9e4:	2e 2f       	jc	$-418    	;abs 0x842
 9e6:	2e 2e       	jc	$-930    	;abs 0x644
 9e8:	2f 2e       	jc	$-928    	;abs 0x648
 9ea:	2e 2f       	jc	$-418    	;abs 0x848
 9ec:	67 63       	addc.b	#2,	r7	;r3 As==10
 9ee:	63 2d       	jc	$+712    	;abs 0xcb6
 9f0:	34 2e       	jc	$-918    	;abs 0x65a
 9f2:	36 2e       	jc	$-914    	;abs 0x660
 9f4:	33 2f       	jc	$-408    	;abs 0x85c
 9f6:	67 63       	addc.b	#2,	r7	;r3 As==10
 9f8:	63 2f       	jc	$-312    	;abs 0x8c0
 9fa:	63 6f       	.word	0x6f63;	????	Illegal as 2-op instr
 9fc:	6e 66       	addc.b	@r6,	r14	
 9fe:	69 67       	addc.b	@r7,	r9	
 a00:	2f 6d       	addc	@r13,	r15	
 a02:	73 70       	.word	0x7073;	????	Illegal as 2-op instr
 a04:	34 33       	jn	$-406    	;abs 0x86e
 a06:	30 2f       	jc	$-414    	;abs 0x868
 a08:	63 72       	.word	0x7263;	????	Illegal as 2-op instr
 a0a:	74 30       	jn	$+234    	;abs 0xaf4
 a0c:	2e 53       	incd	r14		
 a0e:	00 2f       	jc	$-510    	;abs 0x810
 a10:	75 73       	subc.b	#-1,	r5	;r3 As==11
 a12:	72 2f       	jc	$-282    	;abs 0x8f8
 a14:	6c 6f       	addc.b	@r15,	r12	
 a16:	63 61       	.word	0x6163;	????	Illegal as 2-op instr
 a18:	6c 2f       	jc	$-294    	;abs 0x8f2
 a1a:	6d 73       	subc.b	#2,	r13	;r3 As==10
 a1c:	70 34       	jge	$+226    	;abs 0xafe
 a1e:	33 30       	jn	$+104    	;abs 0xa86
 a20:	2f 6d       	addc	@r13,	r15	
 a22:	73 70       	.word	0x7073;	????	Illegal as 2-op instr
 a24:	67 63       	addc.b	#2,	r7	;r3 As==10
 a26:	63 2d       	jc	$+712    	;abs 0xcee
 a28:	69 6e       	addc.b	@r14,	r9	
 a2a:	73 74       	.word	0x7473;	????	Illegal as 2-op instr
 a2c:	61 6c       	addc.b	@r12,	r1	
 a2e:	6c 2f       	jc	$-294    	;abs 0x908
 a30:	6d 73       	subc.b	#2,	r13	;r3 As==10
 a32:	70 67       	addc.b	@r7+,	r0	
 a34:	63 63       	.word	0x6363;	????	Illegal as 2-op instr
 a36:	2d 32       	jn	$-932    	;abs 0x692
 a38:	30 31       	jn	$+610    	;abs 0xc9a
 a3a:	32 30       	jn	$+102    	;abs 0xaa0
 a3c:	34 30       	jn	$+106    	;abs 0xaa6
 a3e:	36 2f       	jc	$-402    	;abs 0x8ac
 a40:	42 55       	add.b	r5,	r2	
 a42:	49 4c       	mov.b	r12,	r9	
 a44:	44 2f       	jc	$-374    	;abs 0x8ce
 a46:	67 63       	addc.b	#2,	r7	;r3 As==10
 a48:	63 2f       	jc	$-312    	;abs 0x910
 a4a:	67 63       	addc.b	#2,	r7	;r3 As==10
 a4c:	63 00 47 4e 	mova	r0,	&0x34e47
 a50:	55 20       	jnz	$+172    	;abs 0xafc
 a52:	41 53       	add.b	#0,	r1	;r3 As==00
 a54:	20 32       	jn	$-958    	;abs 0x696
 a56:	2e 32       	jn	$-930    	;abs 0x6b4
 a58:	31 2e       	jc	$-924    	;abs 0x6bc
 a5a:	31 00 01 80 	mova	-32767(r0),r1	;PC rel. 0xf8a5d
 a5e:	8b 00 00 00 	mova	#0x00000,r11	
 a62:	02 00       	mova	@r0,	r2	
 a64:	83 03       	.word	0x0383;	????	Illegal as address instr
 a66:	00 00       	bra	@r0		
 a68:	02 01       	mova	@r1,	r2	
 a6a:	18 06       	mova	@r6+,	r8	
 a6c:	00 00       	bra	@r0		
 a6e:	10 80 28 80 	sub	-32728(r0),r0	;PC rel. 0x8a98
 a72:	2e 2e       	jc	$-930    	;abs 0x6d0
 a74:	2f 2e       	jc	$-928    	;abs 0x6d4
 a76:	2e 2f       	jc	$-418    	;abs 0x8d4
 a78:	2e 2e       	jc	$-930    	;abs 0x6d6
 a7a:	2f 67       	addc	@r7,	r15	
 a7c:	63 63       	.word	0x6363;	????	Illegal as 2-op instr
 a7e:	2d 34       	jge	$+92     	;abs 0xada
 a80:	2e 36       	jge	$-930    	;abs 0x6de
 a82:	2e 33       	jn	$-418    	;abs 0x8e0
 a84:	2f 67       	addc	@r7,	r15	
 a86:	63 63       	.word	0x6363;	????	Illegal as 2-op instr
 a88:	2f 63       	addc	#2,	r15	;r3 As==10
 a8a:	6f 6e       	addc.b	@r14,	r15	
 a8c:	66 69       	addc.b	@r9,	r6	
 a8e:	67 2f       	jc	$-304    	;abs 0x95e
 a90:	6d 73       	subc.b	#2,	r13	;r3 As==10
 a92:	70 34       	jge	$+226    	;abs 0xb74
 a94:	33 30       	jn	$+104    	;abs 0xafc
 a96:	2f 63       	addc	#2,	r15	;r3 As==10
 a98:	72 74       	subc.b	@r4+,	r2	
 a9a:	30 2e       	jc	$-926    	;abs 0x6fc
 a9c:	53 00       	rrcm	#1,	#0	;r3 As==00
 a9e:	2f 75       	subc	@r5,	r15	
 aa0:	73 72       	.word	0x7273;	????	Illegal as 2-op instr
 aa2:	2f 6c       	addc	@r12,	r15	
 aa4:	6f 63       	addc.b	#2,	r15	;r3 As==10
 aa6:	61 6c       	addc.b	@r12,	r1	
 aa8:	2f 6d       	addc	@r13,	r15	
 aaa:	73 70       	.word	0x7073;	????	Illegal as 2-op instr
 aac:	34 33       	jn	$-406    	;abs 0x916
 aae:	30 2f       	jc	$-414    	;abs 0x910
 ab0:	6d 73       	subc.b	#2,	r13	;r3 As==10
 ab2:	70 67       	addc.b	@r7+,	r0	
 ab4:	63 63       	.word	0x6363;	????	Illegal as 2-op instr
 ab6:	2d 69       	addc	@r9,	r13	
 ab8:	6e 73       	subc.b	#2,	r14	;r3 As==10
 aba:	74 61       	addc.b	@r1+,	r4	
 abc:	6c 6c       	addc.b	@r12,	r12	
 abe:	2f 6d       	addc	@r13,	r15	
 ac0:	73 70       	.word	0x7073;	????	Illegal as 2-op instr
 ac2:	67 63       	addc.b	#2,	r7	;r3 As==10
 ac4:	63 2d       	jc	$+712    	;abs 0xd8c
 ac6:	32 30       	jn	$+102    	;abs 0xb2c
 ac8:	31 32       	jn	$-924    	;abs 0x72c
 aca:	30 34       	jge	$+98     	;abs 0xb2c
 acc:	30 36       	jge	$-926    	;abs 0x72e
 ace:	2f 42       	mov	#4,	r15	;r2 As==10
 ad0:	55 49 4c 44 	mov.b	17484(r9),r5	;0x444c(r9)
 ad4:	2f 67       	addc	@r7,	r15	
 ad6:	63 63       	.word	0x6363;	????	Illegal as 2-op instr
 ad8:	2f 67       	addc	@r7,	r15	
 ada:	63 63       	.word	0x6363;	????	Illegal as 2-op instr
 adc:	00 47       	br	r7		
 ade:	4e 55       	add.b	r5,	r14	
 ae0:	20 41       	br	@r1		
 ae2:	53 20       	jnz	$+168    	;abs 0xb8a
 ae4:	32 2e       	jc	$-922    	;abs 0x74a
 ae6:	32 31       	jn	$+614    	;abs 0xd4c
 ae8:	2e 31       	jn	$+606    	;abs 0xd46
 aea:	00 01       	bra	@r1		
 aec:	80 8b 00 00 	sub	r11,	0(r0)	;PC rel. 0x0aee
 af0:	00 02       	bra	#4		;r2 As==10
 af2:	00 97       	cmp	r7,	r0	
 af4:	03 00       	.word	0x0003;	????	Illegal as address instr
 af6:	00 02       	bra	#4		;r2 As==10
 af8:	01 78       	subc	r8,	r1	
 afa:	06 00       	mova	@r0,	r6	
 afc:	00 28       	jnc	$+2      	;abs 0xafe
 afe:	80 3e       	jmp	$-766    	;abs 0x800
 b00:	80 2e       	jc	$-766    	;abs 0x802
 b02:	2e 2f       	jc	$-418    	;abs 0x960
 b04:	2e 2e       	jc	$-930    	;abs 0x762
 b06:	2f 2e       	jc	$-928    	;abs 0x766
 b08:	2e 2f       	jc	$-418    	;abs 0x966
 b0a:	67 63       	addc.b	#2,	r7	;r3 As==10
 b0c:	63 2d       	jc	$+712    	;abs 0xdd4
 b0e:	34 2e       	jc	$-918    	;abs 0x778
 b10:	36 2e       	jc	$-914    	;abs 0x77e
 b12:	33 2f       	jc	$-408    	;abs 0x97a
 b14:	67 63       	addc.b	#2,	r7	;r3 As==10
 b16:	63 2f       	jc	$-312    	;abs 0x9de
 b18:	63 6f       	.word	0x6f63;	????	Illegal as 2-op instr
 b1a:	6e 66       	addc.b	@r6,	r14	
 b1c:	69 67       	addc.b	@r7,	r9	
 b1e:	2f 6d       	addc	@r13,	r15	
 b20:	73 70       	.word	0x7073;	????	Illegal as 2-op instr
 b22:	34 33       	jn	$-406    	;abs 0x98c
 b24:	30 2f       	jc	$-414    	;abs 0x986
 b26:	63 72       	.word	0x7263;	????	Illegal as 2-op instr
 b28:	74 30       	jn	$+234    	;abs 0xc12
 b2a:	2e 53       	incd	r14		
 b2c:	00 2f       	jc	$-510    	;abs 0x92e
 b2e:	75 73       	subc.b	#-1,	r5	;r3 As==11
 b30:	72 2f       	jc	$-282    	;abs 0xa16
 b32:	6c 6f       	addc.b	@r15,	r12	
 b34:	63 61       	.word	0x6163;	????	Illegal as 2-op instr
 b36:	6c 2f       	jc	$-294    	;abs 0xa10
 b38:	6d 73       	subc.b	#2,	r13	;r3 As==10
 b3a:	70 34       	jge	$+226    	;abs 0xc1c
 b3c:	33 30       	jn	$+104    	;abs 0xba4
 b3e:	2f 6d       	addc	@r13,	r15	
 b40:	73 70       	.word	0x7073;	????	Illegal as 2-op instr
 b42:	67 63       	addc.b	#2,	r7	;r3 As==10
 b44:	63 2d       	jc	$+712    	;abs 0xe0c
 b46:	69 6e       	addc.b	@r14,	r9	
 b48:	73 74       	.word	0x7473;	????	Illegal as 2-op instr
 b4a:	61 6c       	addc.b	@r12,	r1	
 b4c:	6c 2f       	jc	$-294    	;abs 0xa26
 b4e:	6d 73       	subc.b	#2,	r13	;r3 As==10
 b50:	70 67       	addc.b	@r7+,	r0	
 b52:	63 63       	.word	0x6363;	????	Illegal as 2-op instr
 b54:	2d 32       	jn	$-932    	;abs 0x7b0
 b56:	30 31       	jn	$+610    	;abs 0xdb8
 b58:	32 30       	jn	$+102    	;abs 0xbbe
 b5a:	34 30       	jn	$+106    	;abs 0xbc4
 b5c:	36 2f       	jc	$-402    	;abs 0x9ca
 b5e:	42 55       	add.b	r5,	r2	
 b60:	49 4c       	mov.b	r12,	r9	
 b62:	44 2f       	jc	$-374    	;abs 0x9ec
 b64:	67 63       	addc.b	#2,	r7	;r3 As==10
 b66:	63 2f       	jc	$-312    	;abs 0xa2e
 b68:	67 63       	addc.b	#2,	r7	;r3 As==10
 b6a:	63 00 47 4e 	mova	r0,	&0x34e47
 b6e:	55 20       	jnz	$+172    	;abs 0xc1a
 b70:	41 53       	add.b	#0,	r1	;r3 As==00
 b72:	20 32       	jn	$-958    	;abs 0x7b4
 b74:	2e 32       	jn	$-930    	;abs 0x7d2
 b76:	31 2e       	jc	$-924    	;abs 0x7da
 b78:	31 00 01 80 	mova	-32767(r0),r1	;PC rel. 0xf8b7b
 b7c:	8b 00 00 00 	mova	#0x00000,r11	
 b80:	02 00       	mova	@r0,	r2	
 b82:	ab 03 00 00 	adda	#0x30000,r11	
 b86:	02 01       	mova	@r1,	r2	
 b88:	d8 06       	cmpa	r6,	r8	
 b8a:	00 00       	bra	@r0		
 b8c:	ee 80 f4 80 	sub.b	@r0,	-32524(r14);0x80f4(r14)
 b90:	2e 2e       	jc	$-930    	;abs 0x7ee
 b92:	2f 2e       	jc	$-928    	;abs 0x7f2
 b94:	2e 2f       	jc	$-418    	;abs 0x9f2
 b96:	2e 2e       	jc	$-930    	;abs 0x7f4
 b98:	2f 67       	addc	@r7,	r15	
 b9a:	63 63       	.word	0x6363;	????	Illegal as 2-op instr
 b9c:	2d 34       	jge	$+92     	;abs 0xbf8
 b9e:	2e 36       	jge	$-930    	;abs 0x7fc
 ba0:	2e 33       	jn	$-418    	;abs 0x9fe
 ba2:	2f 67       	addc	@r7,	r15	
 ba4:	63 63       	.word	0x6363;	????	Illegal as 2-op instr
 ba6:	2f 63       	addc	#2,	r15	;r3 As==10
 ba8:	6f 6e       	addc.b	@r14,	r15	
 baa:	66 69       	addc.b	@r9,	r6	
 bac:	67 2f       	jc	$-304    	;abs 0xa7c
 bae:	6d 73       	subc.b	#2,	r13	;r3 As==10
 bb0:	70 34       	jge	$+226    	;abs 0xc92
 bb2:	33 30       	jn	$+104    	;abs 0xc1a
 bb4:	2f 63       	addc	#2,	r15	;r3 As==10
 bb6:	72 74       	subc.b	@r4+,	r2	
 bb8:	30 2e       	jc	$-926    	;abs 0x81a
 bba:	53 00       	rrcm	#1,	#0	;r3 As==00
 bbc:	2f 75       	subc	@r5,	r15	
 bbe:	73 72       	.word	0x7273;	????	Illegal as 2-op instr
 bc0:	2f 6c       	addc	@r12,	r15	
 bc2:	6f 63       	addc.b	#2,	r15	;r3 As==10
 bc4:	61 6c       	addc.b	@r12,	r1	
 bc6:	2f 6d       	addc	@r13,	r15	
 bc8:	73 70       	.word	0x7073;	????	Illegal as 2-op instr
 bca:	34 33       	jn	$-406    	;abs 0xa34
 bcc:	30 2f       	jc	$-414    	;abs 0xa2e
 bce:	6d 73       	subc.b	#2,	r13	;r3 As==10
 bd0:	70 67       	addc.b	@r7+,	r0	
 bd2:	63 63       	.word	0x6363;	????	Illegal as 2-op instr
 bd4:	2d 69       	addc	@r9,	r13	
 bd6:	6e 73       	subc.b	#2,	r14	;r3 As==10
 bd8:	74 61       	addc.b	@r1+,	r4	
 bda:	6c 6c       	addc.b	@r12,	r12	
 bdc:	2f 6d       	addc	@r13,	r15	
 bde:	73 70       	.word	0x7073;	????	Illegal as 2-op instr
 be0:	67 63       	addc.b	#2,	r7	;r3 As==10
 be2:	63 2d       	jc	$+712    	;abs 0xeaa
 be4:	32 30       	jn	$+102    	;abs 0xc4a
 be6:	31 32       	jn	$-924    	;abs 0x84a
 be8:	30 34       	jge	$+98     	;abs 0xc4a
 bea:	30 36       	jge	$-926    	;abs 0x84c
 bec:	2f 42       	mov	#4,	r15	;r2 As==10
 bee:	55 49 4c 44 	mov.b	17484(r9),r5	;0x444c(r9)
 bf2:	2f 67       	addc	@r7,	r15	
 bf4:	63 63       	.word	0x6363;	????	Illegal as 2-op instr
 bf6:	2f 67       	addc	@r7,	r15	
 bf8:	63 63       	.word	0x6363;	????	Illegal as 2-op instr
 bfa:	00 47       	br	r7		
 bfc:	4e 55       	add.b	r5,	r14	
 bfe:	20 41       	br	@r1		
 c00:	53 20       	jnz	$+168    	;abs 0xca8
 c02:	32 2e       	jc	$-922    	;abs 0x868
 c04:	32 31       	jn	$+614    	;abs 0xe6a
 c06:	2e 31       	jn	$+606    	;abs 0xe64
 c08:	00 01       	bra	@r1		
 c0a:	80 8b 00 00 	sub	r11,	0(r0)	;PC rel. 0x0c0c
 c0e:	00 02       	bra	#4		;r2 As==10
 c10:	00 bf       	bit	r15,	r0	
 c12:	03 00       	.word	0x0003;	????	Illegal as address instr
 c14:	00 02       	bra	#4		;r2 As==10
 c16:	01 33       	jn	$-508    	;abs 0xa1a
 c18:	07 00       	mova	@r0,	r7	
 c1a:	00 1a       	.word	0x1a00;	????	
 c1c:	92 1c       	.word	0x1c92;	????	
 c1e:	92 2e       	jc	$-730    	;abs 0x944
 c20:	2e 2f       	jc	$-418    	;abs 0xa7e
 c22:	2e 2e       	jc	$-930    	;abs 0x880
 c24:	2f 2e       	jc	$-928    	;abs 0x884
 c26:	2e 2f       	jc	$-418    	;abs 0xa84
 c28:	67 63       	addc.b	#2,	r7	;r3 As==10
 c2a:	63 2d       	jc	$+712    	;abs 0xef2
 c2c:	34 2e       	jc	$-918    	;abs 0x896
 c2e:	36 2e       	jc	$-914    	;abs 0x89c
 c30:	33 2f       	jc	$-408    	;abs 0xa98
 c32:	67 63       	addc.b	#2,	r7	;r3 As==10
 c34:	63 2f       	jc	$-312    	;abs 0xafc
 c36:	63 6f       	.word	0x6f63;	????	Illegal as 2-op instr
 c38:	6e 66       	addc.b	@r6,	r14	
 c3a:	69 67       	addc.b	@r7,	r9	
 c3c:	2f 6d       	addc	@r13,	r15	
 c3e:	73 70       	.word	0x7073;	????	Illegal as 2-op instr
 c40:	34 33       	jn	$-406    	;abs 0xaaa
 c42:	30 2f       	jc	$-414    	;abs 0xaa4
 c44:	63 72       	.word	0x7263;	????	Illegal as 2-op instr
 c46:	74 30       	jn	$+234    	;abs 0xd30
 c48:	2e 53       	incd	r14		
 c4a:	00 2f       	jc	$-510    	;abs 0xa4c
 c4c:	75 73       	subc.b	#-1,	r5	;r3 As==11
 c4e:	72 2f       	jc	$-282    	;abs 0xb34
 c50:	6c 6f       	addc.b	@r15,	r12	
 c52:	63 61       	.word	0x6163;	????	Illegal as 2-op instr
 c54:	6c 2f       	jc	$-294    	;abs 0xb2e
 c56:	6d 73       	subc.b	#2,	r13	;r3 As==10
 c58:	70 34       	jge	$+226    	;abs 0xd3a
 c5a:	33 30       	jn	$+104    	;abs 0xcc2
 c5c:	2f 6d       	addc	@r13,	r15	
 c5e:	73 70       	.word	0x7073;	????	Illegal as 2-op instr
 c60:	67 63       	addc.b	#2,	r7	;r3 As==10
 c62:	63 2d       	jc	$+712    	;abs 0xf2a
 c64:	69 6e       	addc.b	@r14,	r9	
 c66:	73 74       	.word	0x7473;	????	Illegal as 2-op instr
 c68:	61 6c       	addc.b	@r12,	r1	
 c6a:	6c 2f       	jc	$-294    	;abs 0xb44
 c6c:	6d 73       	subc.b	#2,	r13	;r3 As==10
 c6e:	70 67       	addc.b	@r7+,	r0	
 c70:	63 63       	.word	0x6363;	????	Illegal as 2-op instr
 c72:	2d 32       	jn	$-932    	;abs 0x8ce
 c74:	30 31       	jn	$+610    	;abs 0xed6
 c76:	32 30       	jn	$+102    	;abs 0xcdc
 c78:	34 30       	jn	$+106    	;abs 0xce2
 c7a:	36 2f       	jc	$-402    	;abs 0xae8
 c7c:	42 55       	add.b	r5,	r2	
 c7e:	49 4c       	mov.b	r12,	r9	
 c80:	44 2f       	jc	$-374    	;abs 0xb0a
 c82:	67 63       	addc.b	#2,	r7	;r3 As==10
 c84:	63 2f       	jc	$-312    	;abs 0xb4c
 c86:	67 63       	addc.b	#2,	r7	;r3 As==10
 c88:	63 00 47 4e 	mova	r0,	&0x34e47
 c8c:	55 20       	jnz	$+172    	;abs 0xd38
 c8e:	41 53       	add.b	#0,	r1	;r3 As==00
 c90:	20 32       	jn	$-958    	;abs 0x8d2
 c92:	2e 32       	jn	$-930    	;abs 0x8f0
 c94:	31 2e       	jc	$-924    	;abs 0x8f8
 c96:	31 00 01 80 	mova	-32767(r0),r1	;PC rel. 0xf8c99

Disassembly of section .debug_abbrev:

00000000 <.debug_abbrev>:
   0:	01 11       	rra	r1		
   2:	01 25       	jz	$+516    	;abs 0x206
   4:	0e 13       	reti			;return from interupt
   6:	0b 03       	mova	#2,	r11	;r3 As==10
   8:	0e 1b 0e 11 	.rpt	#15
				rrax	r14		
   c:	01 12       	push	r1		
   e:	01 10       	rrc	r1		
  10:	06 00       	mova	@r0,	r6	
  12:	00 02       	bra	#4		;r2 As==10
  14:	24 00 0b 0b 	mova	&0x00b0b,r4	
  18:	3e 0b 03 0e 	mova	3587(r11),r14	;0x0e03(r11)
  1c:	00 00       	bra	@r0		
  1e:	03 24       	jz	$+8      	;abs 0x26
  20:	00 0b       	bra	@r11		
  22:	0b 3e       	jmp	$-1000   	;abs 0xfc3a
  24:	0b 03       	mova	#2,	r11	;r3 As==10
  26:	08 00       	mova	@r0,	r8	
  28:	00 04       	bra	@r4		
  2a:	0f 00       	mova	@r0,	r15	
  2c:	0b 0b       	mova	@r11,	r11	
  2e:	49 13       	calla	r9		
  30:	00 00       	bra	@r0		
  32:	05 26       	jz	$-1012   	;abs 0xfc3e
  34:	00 49       	br	r9		
  36:	13 00       	.word	0x0013;	????	Illegal as address instr
  38:	00 06       	bra	@r6		
  3a:	16 00       	mova	#0x00000,r6	
  3c:	03 0e       	.word	0x0e03;	????	Illegal as address instr
  3e:	3a 0b 3b 0b 	mova	2875(r11),r10	;0x0b3b(r11)
  42:	49 13       	calla	r9		
  44:	00 00       	bra	@r0		
  46:	07 0f       	mova	@r15,	r7	
  48:	00 0b       	bra	@r11		
  4a:	0b 03       	mova	#2,	r11	;r3 As==10
  4c:	0e 00       	mova	@r0,	r14	
  4e:	00 08       	bra	@r8		
  50:	2e 01 3f 0c 	mova	&0x10c3f,r14	
  54:	03 0e       	.word	0x0e03;	????	Illegal as address instr
  56:	3a 0b 3b 0b 	mova	2875(r11),r10	;0x0b3b(r11)
  5a:	27 0c 49 13 	mova	&0xc1349,r7	
  5e:	11 01       	mova	@r1+,	r1	
  60:	12 01       	mova	@r1+,	r2	
  62:	40 0a       	rlam.a	#3,	r0	
  64:	01 13       	reti			;return from interupt
  66:	00 00       	bra	@r0		
  68:	09 05       	mova	@r5,	r9	
  6a:	00 03       	bra	#2		;r3 As==10
  6c:	08 3a       	jl	$-1006   	;abs 0xfc7e
  6e:	0b 3b       	jl	$-488    	;abs 0xfe86
  70:	0b 49       	mov	r9,	r11	
  72:	13 02       	.word	0x0213;	????	Illegal as address instr
  74:	0a 00       	mova	@r0,	r10	
  76:	00 0a       	bra	@r10		
  78:	18 00       	mova	#0x00000,r8	
  7a:	00 00       	bra	@r0		
  7c:	0b 34       	jge	$+24     	;abs 0x94
  7e:	00 03       	bra	#2		;r3 As==10
  80:	0e 3a       	jl	$-994    	;abs 0xfc9e
  82:	0b 3b       	jl	$-488    	;abs 0xfe9a
  84:	0b 49       	mov	r9,	r11	
  86:	13 02       	.word	0x0213;	????	Illegal as address instr
  88:	06 00       	mova	@r0,	r6	
  8a:	00 0c       	bra	@r12		
  8c:	34 00 03 08 	mova	2051(r0),r4	;PC rel. 0x00891
  90:	3a 0b 3b 0b 	mova	2875(r11),r10	;0x0b3b(r11)
  94:	49 13       	calla	r9		
  96:	02 0a       	mova	@r10,	r2	
  98:	00 00       	bra	@r0		
  9a:	0d 2e       	jc	$-996    	;abs 0xfcb6
  9c:	01 3f       	jmp	$-508    	;abs 0xfea0
  9e:	0c 03       	mova	#2,	r12	;r3 As==10
  a0:	0e 3a       	jl	$-994    	;abs 0xfcbe
  a2:	0b 3b       	jl	$-488    	;abs 0xfeba
  a4:	0b 27       	jz	$-488    	;abs 0xfebc
  a6:	0c 49       	mov	r9,	r12	
  a8:	13 11       	rra	#1		;r3 As==01
  aa:	01 12       	push	r1		
  ac:	01 40       	mov	r0,	r1	
  ae:	0a 00       	mova	@r0,	r10	
  b0:	00 0e       	bra	@r14		
  b2:	05 00       	mova	@r0,	r5	
  b4:	03 08       	.word	0x0803;	????	Illegal as address instr
  b6:	3a 0b 3b 0b 	mova	2875(r11),r10	;0x0b3b(r11)
  ba:	49 13       	calla	r9		
  bc:	02 06       	mova	@r6,	r2	
  be:	00 00       	bra	@r0		
  c0:	0f 05       	mova	@r5,	r15	
  c2:	00 03       	bra	#2		;r3 As==10
  c4:	0e 3a       	jl	$-994    	;abs 0xfce2
  c6:	0b 3b       	jl	$-488    	;abs 0xfede
  c8:	0b 49       	mov	r9,	r11	
  ca:	13 02       	.word	0x0213;	????	Illegal as address instr
  cc:	06 00       	mova	@r0,	r6	
  ce:	00 00       	bra	@r0		
  d0:	01 11       	rra	r1		
  d2:	01 25       	jz	$+516    	;abs 0x2d6
  d4:	0e 13       	reti			;return from interupt
  d6:	0b 03       	mova	#2,	r11	;r3 As==10
  d8:	0e 1b 0e 11 	.rpt	#15
				rrax	r14		
  dc:	01 12       	push	r1		
  de:	01 10       	rrc	r1		
  e0:	06 00       	mova	@r0,	r6	
  e2:	00 02       	bra	#4		;r2 As==10
  e4:	24 00 0b 0b 	mova	&0x00b0b,r4	
  e8:	3e 0b 03 0e 	mova	3587(r11),r14	;0x0e03(r11)
  ec:	00 00       	bra	@r0		
  ee:	03 24       	jz	$+8      	;abs 0xf6
  f0:	00 0b       	bra	@r11		
  f2:	0b 3e       	jmp	$-1000   	;abs 0xfd0a
  f4:	0b 03       	mova	#2,	r11	;r3 As==10
  f6:	08 00       	mova	@r0,	r8	
  f8:	00 04       	bra	@r4		
  fa:	16 00       	mova	#0x00000,r6	
  fc:	03 0e       	.word	0x0e03;	????	Illegal as address instr
  fe:	3a 0b 3b 0b 	mova	2875(r11),r10	;0x0b3b(r11)
 102:	49 13       	calla	r9		
 104:	00 00       	bra	@r0		
 106:	05 0f       	mova	@r15,	r5	
 108:	00 0b       	bra	@r11		
 10a:	0b 49       	mov	r9,	r11	
 10c:	13 00       	.word	0x0013;	????	Illegal as address instr
 10e:	00 06       	bra	@r6		
 110:	26 00 49 13 	mova	&0x01349,r6	
 114:	00 00       	bra	@r0		
 116:	07 0f       	mova	@r15,	r7	
 118:	00 0b       	bra	@r11		
 11a:	0b 03       	mova	#2,	r11	;r3 As==10
 11c:	0e 00       	mova	@r0,	r14	
 11e:	00 08       	bra	@r8		
 120:	13 01       	.word	0x0113;	????	Illegal as address instr
 122:	0b 0b       	mova	@r11,	r11	
 124:	3a 0b 3b 0b 	mova	2875(r11),r10	;0x0b3b(r11)
 128:	01 13       	reti			;return from interupt
 12a:	00 00       	bra	@r0		
 12c:	09 0d       	mova	@r13,	r9	
 12e:	00 03       	bra	#2		;r3 As==10
 130:	0e 3a       	jl	$-994    	;abs 0xfd4e
 132:	0b 3b       	jl	$-488    	;abs 0xff4a
 134:	0b 49       	mov	r9,	r11	
 136:	13 0b       	.word	0x0b13;	????	Illegal as address instr
 138:	0b 0d       	mova	@r13,	r11	
 13a:	0b 0c       	mova	@r12,	r11	
 13c:	0b 38       	jl	$+24     	;abs 0x154
 13e:	0a 00       	mova	@r0,	r10	
 140:	00 0a       	bra	@r10		
 142:	0d 00       	mova	@r0,	r13	
 144:	03 0e       	.word	0x0e03;	????	Illegal as address instr
 146:	3a 0b 3b 0b 	mova	2875(r11),r10	;0x0b3b(r11)
 14a:	49 13       	calla	r9		
 14c:	38 0a 00 00 	mova	0(r10),	r8	;0x0000(r10)
 150:	0b 2e       	jc	$-1000   	;abs 0xfd68
 152:	01 03       	mova	#2,	r1	;r3 As==10
 154:	0e 3a       	jl	$-994    	;abs 0xfd72
 156:	0b 3b       	jl	$-488    	;abs 0xff6e
 158:	0b 27       	jz	$-488    	;abs 0xff70
 15a:	0c 49       	mov	r9,	r12	
 15c:	13 20       	jnz	$+40     	;abs 0x184
 15e:	0b 01       	mova	@r1,	r11	
 160:	13 00       	.word	0x0013;	????	Illegal as address instr
 162:	00 0c       	bra	@r12		
 164:	05 00       	mova	@r0,	r5	
 166:	03 0e       	.word	0x0e03;	????	Illegal as address instr
 168:	3a 0b 3b 0b 	mova	2875(r11),r10	;0x0b3b(r11)
 16c:	49 13       	calla	r9		
 16e:	00 00       	bra	@r0		
 170:	0d 34       	jge	$+28     	;abs 0x18c
 172:	00 03       	bra	#2		;r3 As==10
 174:	08 3a       	jl	$-1006   	;abs 0xfd86
 176:	0b 3b       	jl	$-488    	;abs 0xff8e
 178:	0b 49       	mov	r9,	r11	
 17a:	13 00       	.word	0x0013;	????	Illegal as address instr
 17c:	00 0e       	bra	@r14		
 17e:	2e 01 03 0e 	mova	&0x10e03,r14	
 182:	3a 0b 3b 0b 	mova	2875(r11),r10	;0x0b3b(r11)
 186:	27 0c 49 13 	mova	&0xc1349,r7	
 18a:	11 01       	mova	@r1+,	r1	
 18c:	12 01       	mova	@r1+,	r2	
 18e:	40 06       	rlam.a	#2,	r0	
 190:	01 13       	reti			;return from interupt
 192:	00 00       	bra	@r0		
 194:	0f 05       	mova	@r5,	r15	
 196:	00 03       	bra	#2		;r3 As==10
 198:	0e 3a       	jl	$-994    	;abs 0xfdb6
 19a:	0b 3b       	jl	$-488    	;abs 0xffb2
 19c:	0b 49       	mov	r9,	r11	
 19e:	13 02       	.word	0x0213;	????	Illegal as address instr
 1a0:	06 00       	mova	@r0,	r6	
 1a2:	00 10       	rrc	r0		
 1a4:	34 00 03 0e 	mova	3587(r0),r4	;PC rel. 0x00fa9
 1a8:	3a 0b 3b 0b 	mova	2875(r11),r10	;0x0b3b(r11)
 1ac:	49 13       	calla	r9		
 1ae:	02 06       	mova	@r6,	r2	
 1b0:	00 00       	bra	@r0		
 1b2:	11 34       	jge	$+36     	;abs 0x1d6
 1b4:	00 03       	bra	#2		;r3 As==10
 1b6:	0e 3a       	jl	$-994    	;abs 0xfdd4
 1b8:	0b 3b       	jl	$-488    	;abs 0xffd0
 1ba:	0b 49       	mov	r9,	r11	
 1bc:	13 02       	.word	0x0213;	????	Illegal as address instr
 1be:	0a 00       	mova	@r0,	r10	
 1c0:	00 12       	push	r0		
 1c2:	1d 01       	mova	@r1+,	r13	
 1c4:	31 13       	reti			;return from interupt
 1c6:	11 01       	mova	@r1+,	r1	
 1c8:	12 01       	mova	@r1+,	r2	
 1ca:	58 0b       	rrum	#3,	r8	
 1cc:	59 0b       	rrum	#3,	r9	
 1ce:	01 13       	reti			;return from interupt
 1d0:	00 00       	bra	@r0		
 1d2:	13 05       	.word	0x0513;	????	Illegal as address instr
 1d4:	00 31       	jn	$+514    	;abs 0x3d6
 1d6:	13 02       	.word	0x0213;	????	Illegal as address instr
 1d8:	06 00       	mova	@r0,	r6	
 1da:	00 14       	pushm.a	#1,	r0	
 1dc:	0b 01       	mova	@r1,	r11	
 1de:	11 01       	mova	@r1+,	r1	
 1e0:	12 01       	mova	@r1+,	r2	
 1e2:	00 00       	bra	@r0		
 1e4:	15 34       	jge	$+44     	;abs 0x210
 1e6:	00 31       	jn	$+514    	;abs 0x3e8
 1e8:	13 02       	.word	0x0213;	????	Illegal as address instr
 1ea:	06 00       	mova	@r0,	r6	
 1ec:	00 16       	popm.a	#1,	r0	
 1ee:	34 00 03 08 	mova	2051(r0),r4	;PC rel. 0x009f3
 1f2:	3a 0b 3b 0b 	mova	2875(r11),r10	;0x0b3b(r11)
 1f6:	49 13       	calla	r9		
 1f8:	02 06       	mova	@r6,	r2	
 1fa:	00 00       	bra	@r0		
 1fc:	17 15       	pushm	#2,	r7	
 1fe:	01 27       	jz	$-508    	;abs 0x2
 200:	0c 49       	mov	r9,	r12	
 202:	13 01       	.word	0x0113;	????	Illegal as address instr
 204:	13 00       	.word	0x0013;	????	Illegal as address instr
 206:	00 18       	.word	0x1800;	????	
 208:	05 00       	mova	@r0,	r5	
 20a:	49 13       	calla	r9		
 20c:	00 00       	bra	@r0		
 20e:	19 01       	mova	@r1+,	r9	
 210:	01 49       	mov	r9,	r1	
 212:	13 01       	.word	0x0113;	????	Illegal as address instr
 214:	13 00       	.word	0x0013;	????	Illegal as address instr
 216:	00 1a       	.word	0x1a00;	????	
 218:	21 00 49 13 	mova	&0x01349,r1	
 21c:	2f 0b 00 00 	mova	&0xb0000,r15	
 220:	1b 2e       	jc	$-968    	;abs 0xfe58
 222:	01 3f       	jmp	$-508    	;abs 0x26
 224:	0c 03       	mova	#2,	r12	;r3 As==10
 226:	0e 3a       	jl	$-994    	;abs 0xfe44
 228:	0b 3b       	jl	$-488    	;abs 0x40
 22a:	0b 27       	jz	$-488    	;abs 0x42
 22c:	0c 49       	mov	r9,	r12	
 22e:	13 11       	rra	#1		;r3 As==01
 230:	01 12       	push	r1		
 232:	01 40       	mov	r0,	r1	
 234:	06 01       	mova	@r1,	r6	
 236:	13 00       	.word	0x0013;	????	Illegal as address instr
 238:	00 1c       	.word	0x1c00;	????	
 23a:	04 01       	mova	@r1,	r4	
 23c:	0b 0b       	mova	@r11,	r11	
 23e:	3a 0b 3b 0b 	mova	2875(r11),r10	;0x0b3b(r11)
 242:	01 13       	reti			;return from interupt
 244:	00 00       	bra	@r0		
 246:	1d 28       	jnc	$+60     	;abs 0x282
 248:	00 03       	bra	#2		;r3 As==10
 24a:	0e 1c       	.word	0x1c0e;	????	
 24c:	0d 00       	mova	@r0,	r13	
 24e:	00 1e       	.word	0x1e00;	????	
 250:	34 00 03 0e 	mova	3587(r0),r4	;PC rel. 0x01055
 254:	3a 0b 3b 05 	mova	1339(r11),r10	;0x053b(r11)
 258:	49 13       	calla	r9		
 25a:	02 0a       	mova	@r10,	r2	
 25c:	00 00       	bra	@r0		
 25e:	1f 34       	jge	$+64     	;abs 0x29e
 260:	00 03       	bra	#2		;r3 As==10
 262:	0e 3a       	jl	$-994    	;abs 0xfe80
 264:	0b 3b       	jl	$-488    	;abs 0x7c
 266:	05 49       	mov	r9,	r5	
 268:	13 02       	.word	0x0213;	????	Illegal as address instr
 26a:	06 00       	mova	@r0,	r6	
 26c:	00 20       	jnz	$+2      	;abs 0x26e
 26e:	17 01       	mova	@r1+,	r7	
 270:	0b 0b       	mova	@r11,	r11	
 272:	3a 0b 3b 05 	mova	1339(r11),r10	;0x053b(r11)
 276:	01 13       	reti			;return from interupt
 278:	00 00       	bra	@r0		
 27a:	21 0d 00 03 	mova	&0xd0300,r1	
 27e:	08 3a       	jl	$-1006   	;abs 0xfe90
 280:	0b 3b       	jl	$-488    	;abs 0x98
 282:	05 49       	mov	r9,	r5	
 284:	13 00       	.word	0x0013;	????	Illegal as address instr
 286:	00 22       	jnz	$-1022   	;abs 0xfe88
 288:	0a 00       	mova	@r0,	r10	
 28a:	03 0e       	.word	0x0e03;	????	Illegal as address instr
 28c:	3a 0b 3b 05 	mova	1339(r11),r10	;0x053b(r11)
 290:	11 01       	mova	@r1+,	r1	
 292:	00 00       	bra	@r0		
 294:	23 0b       	.word	0x0b23;	????	Illegal as address instr
 296:	01 55       	add	r5,	r1	
 298:	06 01       	mova	@r1,	r6	
 29a:	13 00       	.word	0x0013;	????	Illegal as address instr
 29c:	00 24       	jz	$+2      	;abs 0x29e
 29e:	34 00 03 08 	mova	2051(r0),r4	;PC rel. 0x00aa3
 2a2:	3a 0b 3b 05 	mova	1339(r11),r10	;0x053b(r11)
 2a6:	49 13       	calla	r9		
 2a8:	02 06       	mova	@r6,	r2	
 2aa:	00 00       	bra	@r0		
 2ac:	25 0b 01 11 	mova	&0xb1101,r5	
 2b0:	01 12       	push	r1		
 2b2:	01 01       	mova	@r1,	r1	
 2b4:	13 00       	.word	0x0013;	????	Illegal as address instr
 2b6:	00 26       	jz	$-1022   	;abs 0xfeb8
 2b8:	01 01       	mova	@r1,	r1	
 2ba:	49 13       	calla	r9		
 2bc:	00 00       	bra	@r0		
 2be:	00 01       	bra	@r1		
 2c0:	11 01       	mova	@r1+,	r1	
 2c2:	25 0e 13 0b 	mova	&0xe0b13,r5	
 2c6:	03 0e       	.word	0x0e03;	????	Illegal as address instr
 2c8:	1b 0e       	mova	@r14+,	r11	
 2ca:	11 01       	mova	@r1+,	r1	
 2cc:	12 01       	mova	@r1+,	r2	
 2ce:	10 06       	bra	@r6+		
 2d0:	00 00       	bra	@r0		
 2d2:	02 24       	jz	$+6      	;abs 0x2d8
 2d4:	00 0b       	bra	@r11		
 2d6:	0b 3e       	jmp	$-1000   	;abs 0xfeee
 2d8:	0b 03       	mova	#2,	r11	;r3 As==10
 2da:	0e 00       	mova	@r0,	r14	
 2dc:	00 03       	bra	#2		;r3 As==10
 2de:	24 00 0b 0b 	mova	&0x00b0b,r4	
 2e2:	3e 0b 03 08 	mova	2051(r11),r14	;0x0803(r11)
 2e6:	00 00       	bra	@r0		
 2e8:	04 0f       	mova	@r15,	r4	
 2ea:	00 0b       	bra	@r11		
 2ec:	0b 49       	mov	r9,	r11	
 2ee:	13 00       	.word	0x0013;	????	Illegal as address instr
 2f0:	00 05       	bra	@r5		
 2f2:	26 00 49 13 	mova	&0x01349,r6	
 2f6:	00 00       	bra	@r0		
 2f8:	06 2e       	jc	$-1010   	;abs 0xff06
 2fa:	01 3f       	jmp	$-508    	;abs 0xfe
 2fc:	0c 03       	mova	#2,	r12	;r3 As==10
 2fe:	0e 3a       	jl	$-994    	;abs 0xff1c
 300:	0b 3b       	jl	$-488    	;abs 0x118
 302:	0b 27       	jz	$-488    	;abs 0x11a
 304:	0c 49       	mov	r9,	r12	
 306:	13 11       	rra	#1		;r3 As==01
 308:	01 12       	push	r1		
 30a:	01 40       	mov	r0,	r1	
 30c:	06 00       	mova	@r0,	r6	
 30e:	00 07       	bra	@r7		
 310:	05 00       	mova	@r0,	r5	
 312:	03 08       	.word	0x0803;	????	Illegal as address instr
 314:	3a 0b 3b 0b 	mova	2875(r11),r10	;0x0b3b(r11)
 318:	49 13       	calla	r9		
 31a:	02 06       	mova	@r6,	r2	
 31c:	00 00       	bra	@r0		
 31e:	00 01       	bra	@r1		
 320:	11 00       	mova	#0x00000,r1	
 322:	10 06       	bra	@r6+		
 324:	11 01       	mova	@r1+,	r1	
 326:	12 01       	mova	@r1+,	r2	
 328:	03 08       	.word	0x0803;	????	Illegal as address instr
 32a:	1b 08       	mova	@r8+,	r11	
 32c:	25 08 13 05 	mova	&0x80513,r5	
 330:	00 00       	bra	@r0		
 332:	00 01       	bra	@r1		
 334:	11 00       	mova	#0x00000,r1	
 336:	10 06       	bra	@r6+		
 338:	11 01       	mova	@r1+,	r1	
 33a:	12 01       	mova	@r1+,	r2	
 33c:	03 08       	.word	0x0803;	????	Illegal as address instr
 33e:	1b 08       	mova	@r8+,	r11	
 340:	25 08 13 05 	mova	&0x80513,r5	
 344:	00 00       	bra	@r0		
 346:	00 01       	bra	@r1		
 348:	11 00       	mova	#0x00000,r1	
 34a:	10 06       	bra	@r6+		
 34c:	11 01       	mova	@r1+,	r1	
 34e:	12 01       	mova	@r1+,	r2	
 350:	03 08       	.word	0x0803;	????	Illegal as address instr
 352:	1b 08       	mova	@r8+,	r11	
 354:	25 08 13 05 	mova	&0x80513,r5	
 358:	00 00       	bra	@r0		
 35a:	00 01       	bra	@r1		
 35c:	11 00       	mova	#0x00000,r1	
 35e:	10 06       	bra	@r6+		
 360:	11 01       	mova	@r1+,	r1	
 362:	12 01       	mova	@r1+,	r2	
 364:	03 08       	.word	0x0803;	????	Illegal as address instr
 366:	1b 08       	mova	@r8+,	r11	
 368:	25 08 13 05 	mova	&0x80513,r5	
 36c:	00 00       	bra	@r0		
 36e:	00 01       	bra	@r1		
 370:	11 00       	mova	#0x00000,r1	
 372:	10 06       	bra	@r6+		
 374:	11 01       	mova	@r1+,	r1	
 376:	12 01       	mova	@r1+,	r2	
 378:	03 08       	.word	0x0803;	????	Illegal as address instr
 37a:	1b 08       	mova	@r8+,	r11	
 37c:	25 08 13 05 	mova	&0x80513,r5	
 380:	00 00       	bra	@r0		
 382:	00 01       	bra	@r1		
 384:	11 00       	mova	#0x00000,r1	
 386:	10 06       	bra	@r6+		
 388:	11 01       	mova	@r1+,	r1	
 38a:	12 01       	mova	@r1+,	r2	
 38c:	03 08       	.word	0x0803;	????	Illegal as address instr
 38e:	1b 08       	mova	@r8+,	r11	
 390:	25 08 13 05 	mova	&0x80513,r5	
 394:	00 00       	bra	@r0		
 396:	00 01       	bra	@r1		
 398:	11 00       	mova	#0x00000,r1	
 39a:	10 06       	bra	@r6+		
 39c:	11 01       	mova	@r1+,	r1	
 39e:	12 01       	mova	@r1+,	r2	
 3a0:	03 08       	.word	0x0803;	????	Illegal as address instr
 3a2:	1b 08       	mova	@r8+,	r11	
 3a4:	25 08 13 05 	mova	&0x80513,r5	
 3a8:	00 00       	bra	@r0		
 3aa:	00 01       	bra	@r1		
 3ac:	11 00       	mova	#0x00000,r1	
 3ae:	10 06       	bra	@r6+		
 3b0:	11 01       	mova	@r1+,	r1	
 3b2:	12 01       	mova	@r1+,	r2	
 3b4:	03 08       	.word	0x0803;	????	Illegal as address instr
 3b6:	1b 08       	mova	@r8+,	r11	
 3b8:	25 08 13 05 	mova	&0x80513,r5	
 3bc:	00 00       	bra	@r0		
 3be:	00 01       	bra	@r1		
 3c0:	11 00       	mova	#0x00000,r1	
 3c2:	10 06       	bra	@r6+		
 3c4:	11 01       	mova	@r1+,	r1	
 3c6:	12 01       	mova	@r1+,	r2	
 3c8:	03 08       	.word	0x0803;	????	Illegal as address instr
 3ca:	1b 08       	mova	@r8+,	r11	
 3cc:	25 08 13 05 	mova	&0x80513,r5	
 3d0:	00 00       	bra	@r0		
	...

Disassembly of section .debug_line:

00000000 <.debug_line>:
   0:	7b 00 00 00 	mova	r0,	0(r11)	;0x0000(r11)
   4:	02 00       	mova	@r0,	r2	
   6:	63 00 00 00 	mova	r0,	&0x30000
   a:	01 01       	mova	@r1,	r1	
   c:	fb 0e       	suba	r14,	r11	
   e:	0d 00       	mova	@r0,	r13	
  10:	01 01       	mova	@r1,	r1	
  12:	01 01       	mova	@r1,	r1	
  14:	00 00       	bra	@r0		
  16:	00 01       	bra	@r1		
  18:	00 00       	bra	@r0		
  1a:	01 2e       	jc	$-1020   	;abs 0xfc1e
  1c:	2f 73       	subc	#2,	r15	;r3 As==10
  1e:	74 64       	addc.b	@r4+,	r4	
  20:	6c 69       	addc.b	@r9,	r12	
  22:	62 00 2f 75 	mova	r0,	&0x2752f
  26:	73 72       	.word	0x7273;	????	Illegal as 2-op instr
  28:	2f 6c       	addc	@r12,	r15	
  2a:	6f 63       	addc.b	#2,	r15	;r3 As==10
  2c:	61 6c       	addc.b	@r12,	r1	
  2e:	2f 6d       	addc	@r13,	r15	
  30:	73 70       	.word	0x7073;	????	Illegal as 2-op instr
  32:	34 33       	jn	$-406    	;abs 0xfe9c
  34:	30 2f       	jc	$-414    	;abs 0xfe96
  36:	6c 69       	addc.b	@r9,	r12	
  38:	62 2f       	jc	$-314    	;abs 0xfefe
  3a:	67 63       	addc.b	#2,	r7	;r3 As==10
  3c:	63 2f       	jc	$-312    	;abs 0xff04
  3e:	6d 73       	subc.b	#2,	r13	;r3 As==10
  40:	70 34       	jge	$+226    	;abs 0x122
  42:	33 30       	jn	$+104    	;abs 0xaa
  44:	2f 34       	jge	$+96     	;abs 0xa4
  46:	2e 36       	jge	$-930    	;abs 0xfca4
  48:	2e 33       	jn	$-418    	;abs 0xfea6
  4a:	2f 69       	addc	@r9,	r15	
  4c:	6e 63       	addc.b	#2,	r14	;r3 As==10
  4e:	6c 75       	subc.b	@r5,	r12	
  50:	64 65       	addc.b	@r5,	r4	
  52:	00 00       	bra	@r0		
  54:	70 72       	subc.b	#8,	r0	;r2 As==11
  56:	69 6e       	addc.b	@r14,	r9	
  58:	74 66       	addc.b	@r6+,	r4	
  5a:	2e 63       	addc	#2,	r14	;r3 As==10
  5c:	00 01       	bra	@r1		
  5e:	00 00       	bra	@r0		
  60:	73 74       	.word	0x7473;	????	Illegal as 2-op instr
  62:	64 61       	addc.b	@r1,	r4	
  64:	72 67       	addc.b	@r7+,	r2	
  66:	2e 68       	addc	@r8,	r14	
  68:	00 02       	bra	#4		;r2 As==10
  6a:	00 00       	bra	@r0		
  6c:	00 00       	bra	@r0		
  6e:	03 02       	.word	0x0203;	????	Illegal as address instr
  70:	a2 88 03 24 	sub	@r8,	&0x2403	
  74:	01 6b       	addc	r11,	r1	
  76:	85 32       	jn	$-756    	;abs 0xfd82
  78:	13 bb       	.word	0xbb13;	????	Illegal as 2-op instr
  7a:	02 02       	mova	#4,	r2	;r2 As==10
  7c:	00 01       	bra	@r1		
  7e:	01 d7       	bis	r7,	r1	
  80:	02 00       	mova	@r0,	r2	
  82:	00 02       	bra	#4		;r2 As==10
  84:	00 7e       	subc	r14,	r0	
  86:	00 00       	bra	@r0		
  88:	00 01       	bra	@r1		
  8a:	01 fb       	and	r11,	r1	
  8c:	0e 0d       	mova	@r13,	r14	
  8e:	00 01       	bra	@r1		
  90:	01 01       	mova	@r1,	r1	
  92:	01 00       	mova	@r0,	r1	
  94:	00 00       	bra	@r0		
  96:	01 00       	mova	@r0,	r1	
  98:	00 01       	bra	@r1		
  9a:	2e 2f       	jc	$-418    	;abs 0xfef8
  9c:	73 74       	.word	0x7473;	????	Illegal as 2-op instr
  9e:	64 6c       	addc.b	@r12,	r4	
  a0:	69 62       	addc.b	#4,	r9	;r2 As==10
  a2:	00 2e       	jc	$-1022   	;abs 0xfca4
  a4:	2f 2e       	jc	$-928    	;abs 0xfd04
  a6:	2e 2f       	jc	$-418    	;abs 0xff04
  a8:	69 6e       	addc.b	@r14,	r9	
  aa:	63 6c       	.word	0x6c63;	????	Illegal as 2-op instr
  ac:	75 64       	addc.b	@r4+,	r5	
  ae:	65 00 2f 75 	mova	r0,	&0x5752f
  b2:	73 72       	.word	0x7273;	????	Illegal as 2-op instr
  b4:	2f 6c       	addc	@r12,	r15	
  b6:	6f 63       	addc.b	#2,	r15	;r3 As==10
  b8:	61 6c       	addc.b	@r12,	r1	
  ba:	2f 6d       	addc	@r13,	r15	
  bc:	73 70       	.word	0x7073;	????	Illegal as 2-op instr
  be:	34 33       	jn	$-406    	;abs 0xff28
  c0:	30 2f       	jc	$-414    	;abs 0xff22
  c2:	6c 69       	addc.b	@r9,	r12	
  c4:	62 2f       	jc	$-314    	;abs 0xff8a
  c6:	67 63       	addc.b	#2,	r7	;r3 As==10
  c8:	63 2f       	jc	$-312    	;abs 0xff90
  ca:	6d 73       	subc.b	#2,	r13	;r3 As==10
  cc:	70 34       	jge	$+226    	;abs 0x1ae
  ce:	33 30       	jn	$+104    	;abs 0x136
  d0:	2f 34       	jge	$+96     	;abs 0x130
  d2:	2e 36       	jge	$-930    	;abs 0xfd30
  d4:	2e 33       	jn	$-418    	;abs 0xff32
  d6:	2f 69       	addc	@r9,	r15	
  d8:	6e 63       	addc.b	#2,	r14	;r3 As==10
  da:	6c 75       	subc.b	@r5,	r12	
  dc:	64 65       	addc.b	@r5,	r4	
  de:	00 00       	bra	@r0		
  e0:	76 75       	subc.b	@r5+,	r6	
  e2:	70 72       	subc.b	#8,	r0	;r2 As==11
  e4:	69 6e       	addc.b	@r14,	r9	
  e6:	74 66       	addc.b	@r6+,	r4	
  e8:	2e 63       	addc	#2,	r14	;r3 As==10
  ea:	00 01       	bra	@r1		
  ec:	00 00       	bra	@r0		
  ee:	73 74       	.word	0x7473;	????	Illegal as 2-op instr
  f0:	64 69       	addc.b	@r9,	r4	
  f2:	6e 74       	subc.b	@r4,	r14	
  f4:	2e 68       	addc	@r8,	r14	
  f6:	00 02       	bra	#4		;r2 As==10
  f8:	00 00       	bra	@r0		
  fa:	73 74       	.word	0x7473;	????	Illegal as 2-op instr
  fc:	64 61       	addc.b	@r1,	r4	
  fe:	72 67       	addc.b	@r7+,	r2	
 100:	2e 68       	addc	@r8,	r14	
 102:	00 03       	bra	#2		;r3 As==10
 104:	00 00       	bra	@r0		
 106:	00 00       	bra	@r0		
 108:	03 02       	.word	0x0203;	????	Illegal as address instr
 10a:	c0 88 03 fb 	sub.b	r8,	-1277(r0);PC rel. 0xfc0f
 10e:	00 01       	bra	@r1		
 110:	03 3c       	jmp	$+8      	;abs 0x118
 112:	08 3c       	jmp	$+18     	;abs 0x124
 114:	03 48       	.word	0x4803;	????	Illegal as 2-op instr
 116:	66 03 63 2e 	mova	#0,	&0x62e63;r3 As==00
 11a:	84 67 08 ae 	addc	r7,	-20984(r4);0xae08(r4)
 11e:	67 83       	decd.b	r7		
 120:	4b 03       	rrum.a	#1,	r11	
 122:	77 9e       	cmp.b	@r14+,	r7	
 124:	03 0a       	.word	0x0a03;	????	Illegal as address instr
 126:	2e 03 17 08 	mova	&0x30817,r14	
 12a:	c8 b7 4e 31 	bit.b	r7,	12622(r8);0x314e(r8)
 12e:	85 08 23 4b 	mova	#0x84b23,r5	
 132:	4c 31       	jn	$+666    	;abs 0x3cc
 134:	68 4b       	mov.b	@r11,	r8	
 136:	4c 2c       	jc	$+154    	;abs 0x1d0
 138:	03 0a       	.word	0x0a03;	????	Illegal as address instr
 13a:	82 03 69 4a 	mova	#0x34a69,r2	
 13e:	03 76       	.word	0x7603;	????	Illegal as 2-op instr
 140:	66 2c       	jc	$+206    	;abs 0x20e
 142:	47 03       	rrum.a	#1,	r7	
 144:	2b 4a       	mov	@r10,	r11	
 146:	99 00 02 04 	cmpa	#0x00402,r9	
 14a:	01 32       	jn	$-1020   	;abs 0xfd4e
 14c:	06 4a       	mov	r10,	r6	
 14e:	06 2c       	jc	$+14     	;abs 0x15c
 150:	00 02       	bra	#4		;r2 As==10
 152:	04 01       	mova	@r1,	r4	
 154:	03 58       	.word	0x5803;	????	Illegal as 2-op instr
 156:	66 03 30 4a 	mova	#0,	&0x64a30;r3 As==00
 15a:	83 00       	.word	0x0083;	????	Illegal as address instr
 15c:	02 04       	mova	@r4,	r2	
 15e:	01 2b       	jnc	$-508    	;abs 0xff62
 160:	03 57       	.word	0x5703;	????	Illegal as 2-op instr
 162:	9e 2c       	jc	$+318    	;abs 0x2a0
 164:	03 36       	jge	$-1016   	;abs 0xfd6c
 166:	4a 03       	rrum.a	#1,	r10	
 168:	47 2e       	jc	$-880    	;abs 0xfdf8
 16a:	03 3a       	jl	$-1016   	;abs 0xfd72
 16c:	4a 00       	rrcm.a	#1,	r10	
 16e:	02 04       	mova	@r4,	r2	
 170:	01 7f       	subc	r15,	r1	
 172:	51 00       	rrcm	#1,	r1	
 174:	02 04       	mova	@r4,	r2	
 176:	01 06       	mova	@r6,	r1	
 178:	66 00 02 04 	mova	r0,	&0x60402
 17c:	01 06       	mova	@r6,	r1	
 17e:	03 42       	.word	0x4203;	????	Illegal as 2-op instr
 180:	4a 03       	rrum.a	#1,	r10	
 182:	c2 00       	mova	r0,	r2	
 184:	82 00 02 04 	mova	#0x00402,r2	
 188:	01 80       	sub	r0,	r1	
 18a:	03 40       	.word	0x4003;	????	Illegal as 2-op instr
 18c:	4a 03       	rrum.a	#1,	r10	
 18e:	c0 00       	bra	r0		
 190:	2e 52       	add	#4,	r14	;r2 As==10
 192:	30 4c       	br	@r12+		
 194:	00 02       	bra	#4		;r2 As==10
 196:	04 01       	mova	@r1,	r4	
 198:	03 b4       	.word	0xb403;	????	Illegal as 2-op instr
 19a:	7f 2e       	jc	$-768    	;abs 0xfe9a
 19c:	00 02       	bra	#4		;r2 As==10
 19e:	04 01       	mova	@r1,	r4	
 1a0:	03 c8       	.word	0xc803;	????	Illegal as 2-op instr
 1a2:	00 4a       	br	r10		
 1a4:	00 02       	bra	#4		;r2 As==10
 1a6:	04 02       	mova	#4,	r4	;r2 As==10
 1a8:	06 66       	rlc	r6		
 1aa:	06 03       	mova	#2,	r6	;r3 As==10
 1ac:	09 66       	addc	r6,	r9	
 1ae:	67 00 02 04 	mova	r0,	&0x70402
 1b2:	01 2b       	jnc	$-508    	;abs 0xffb6
 1b4:	51 03       	rrum	#1,	r1	
 1b6:	2a 82       	sub	#4,	r10	;r2 As==10
 1b8:	dd 51 49 49 	add.b	18761(r1),841(r13);0x4949(r1), 0x0349(r13)
 1bc:	49 03 
 1be:	7a 4a       	mov.b	@r10+,	r10	
 1c0:	49 49       	mov.b	r9,	r9	
 1c2:	2c 03 b8 02 	mova	&0x302b8,r12	
 1c6:	4a 03       	rrum.a	#1,	r10	
 1c8:	e3 7d       	subc.b	@r13,	#1	;r3 As==01
 1ca:	08 ac       	dadd	r12,	r8	
 1cc:	bc 4e 69 bb 	mov	@r14+,	-17559(r12);0xbb69(r12)
 1d0:	f0 03       	decda	r0		
 1d2:	fd 00       	suba	r0,	r13	
 1d4:	82 03 8c 7f 	mova	#0x37f8c,r2	
 1d8:	4a 83       	sub.b	#0,	r10	;r3 As==00
 1da:	89 00 02 04 	mova	#0x00402,r9	
 1de:	01 06       	mova	@r6,	r1	
 1e0:	02 9a       	cmp	r10,	r2	
 1e2:	01 12       	push	r1		
 1e4:	00 02       	bra	#4		;r2 As==10
 1e6:	04 01       	mova	@r1,	r4	
 1e8:	06 03       	mova	#2,	r6	;r3 As==10
 1ea:	4a 4a       	mov.b	r10,	r10	
 1ec:	03 d3       	.word	0xd303;	????	Illegal as 2-op instr
 1ee:	01 9e       	cmp	r14,	r1	
 1f0:	03 eb       	.word	0xeb03;	????	Illegal as 2-op instr
 1f2:	7e 66       	addc.b	@r6+,	r14	
 1f4:	88 84 67 a5 	sub	r4,	-23193(r8);0xa567(r8)
 1f8:	03 0b       	.word	0x0b03;	????	Illegal as address instr
 1fa:	9e a3 a4 bb 	dadd	#1,	-17500(r14);r3 As==01, 0xbba4(r14)
 1fe:	a3 a4       	dadd	@r4,	#1	;r3 As==01
 200:	88 bc 4b 67 	bit	r12,	26443(r8);0x674b(r8)
 204:	a2 67 03 77 	addc	@r7,	&0x7703	
 208:	9e 03 16 66 	cmpa	#0x36616,r14	
 20c:	00 02       	bra	#4		;r2 As==10
 20e:	04 01       	mova	@r1,	r4	
 210:	06 66       	rlc	r6		
 212:	06 68       	addc	r8,	r6	
 214:	03 0d       	.word	0x0d03;	????	Illegal as address instr
 216:	02 24       	jz	$+6      	;abs 0x21c
 218:	01 d7       	bis	r7,	r1	
 21a:	bb 87 bb 00 	sub	@r7+,	187(r11);0x00bb(r11)
 21e:	02 04       	mova	@r4,	r2	
 220:	01 06       	mova	@r6,	r1	
 222:	66 06 69 4b 	mova	r6,	&0x64b69
 226:	48 4d       	mov.b	r13,	r8	
 228:	33 be       	.word	0xbe33;	????	Illegal as 2-op instr
 22a:	68 4b       	mov.b	@r11,	r8	
 22c:	a0 bc 00 02 	bit	@r12,	512(r0)	;PC rel. 0x042e
 230:	04 03       	mova	#2,	r4	;r3 As==10
 232:	06 82       	sub	r2,	r6	
 234:	00 02       	bra	#4		;r2 As==10
 236:	04 03       	mova	#2,	r4	;r3 As==10
 238:	06 08       	mova	@r8,	r6	
 23a:	95 88 d9 08 	sub	2265(r8),19569(r5);0x08d9(r8), 0x4c71(r5)
 23e:	71 4c 
 240:	68 32       	jn	$-814    	;abs 0xff12
 242:	03 0e       	.word	0x0e03;	????	Illegal as address instr
 244:	66 4e       	mov.b	@r14,	r6	
 246:	03 71       	.word	0x7103;	????	Illegal as 2-op instr
 248:	82 03 13 66 	mova	#0x36613,r2	
 24c:	68 08 e5 08 	mova	r8,	&0x808e5
 250:	75 9c       	cmp.b	@r12+,	r5	
 252:	6d 30       	jn	$+220    	;abs 0x32e
 254:	48 30       	jn	$+146    	;abs 0x2e6
 256:	f3 a4       	dadd.b	@r4+,	#1	;r3 As==01
 258:	9f bb 9c 52 	bit	21148(r11),512(r15);0x529c(r11), 0x0200(r15)
 25c:	00 02 
 25e:	04 01       	mova	@r1,	r4	
 260:	06 66       	rlc	r6		
 262:	06 84       	sub	r4,	r6	
 264:	83 67       	addc	r7,	#1	;r3 As==01
 266:	67 84       	sub.b	@r4,	r7	
 268:	00 02       	bra	#4		;r2 As==10
 26a:	04 01       	mova	@r1,	r4	
 26c:	06 66       	rlc	r6		
 26e:	06 69       	addc	r9,	r6	
 270:	68 4b       	mov.b	@r11,	r8	
 272:	08 24       	jz	$+18     	;abs 0x284
 274:	4b 08       	rrcm.a	#3,	r11	
 276:	23 87       	.word	0x8723;	????	Illegal as 2-op instr
 278:	03 11       	rra	#0		;r3 As==00
 27a:	4a 00       	rrcm.a	#1,	r10	
 27c:	02 04       	mova	@r4,	r2	
 27e:	07 08       	mova	@r8,	r7	
 280:	75 00 02 04 	mova	r0,	1026(r5);0x0402(r5)
 284:	01 06       	mova	@r6,	r1	
 286:	02 32       	jn	$-1018   	;abs 0xfe8c
 288:	12 00       	mova	#0x00000,r2	
 28a:	02 04       	mova	@r4,	r2	
 28c:	02 9e       	cmp	r14,	r2	
 28e:	82 00 02 04 	mova	#0x00402,r2	
 292:	05 9e       	cmp	r14,	r5	
 294:	00 02       	bra	#4		;r2 As==10
 296:	04 05       	mova	@r5,	r4	
 298:	06 03       	mova	#2,	r6	;r3 As==10
 29a:	d9 7d 66 00 	subc.b	102(r13),1026(r9);0x0066(r13), 0x0402(r9)
 29e:	02 04 
 2a0:	05 03       	mova	#2,	r5	;r3 As==10
 2a2:	a7 02 4a 00 	adda	#0x2004a,r7	
 2a6:	02 04       	mova	@r4,	r2	
 2a8:	06 06       	mova	@r6,	r6	
 2aa:	02 2a       	jnc	$-1018   	;abs 0xfeb0
 2ac:	12 08       	mova	@r8+,	r2	
 2ae:	ac 06 a2 00 	adda	#0x600a2,r12	
 2b2:	02 04       	mova	@r4,	r2	
 2b4:	07 02       	mova	#4,	r7	;r2 As==10
 2b6:	22 13       	reti			;return from interupt
 2b8:	00 02       	bra	#4		;r2 As==10
 2ba:	04 01       	mova	@r1,	r4	
 2bc:	06 02       	mova	#4,	r6	;r2 As==10
 2be:	22 12       	push	#4		;r2 As==10
 2c0:	00 02       	bra	#4		;r2 As==10
 2c2:	04 02       	mova	#4,	r4	;r2 As==10
 2c4:	9e 82 00 02 	sub	&0x0200,1284(r14);0x0504(r14)
 2c8:	04 05 
 2ca:	9e 00 02 04 	cmpa	#0x00402,r14	
 2ce:	05 06       	mova	@r6,	r5	
 2d0:	03 d4       	.word	0xd403;	????	Illegal as 2-op instr
 2d2:	7d 66       	addc.b	@r6+,	r13	
 2d4:	00 02       	bra	#4		;r2 As==10
 2d6:	04 05       	mova	@r5,	r4	
 2d8:	03 ac       	.word	0xac03;	????	Illegal as 2-op instr
 2da:	02 4a       	mov	r10,	r2	
 2dc:	00 02       	bra	#4		;r2 As==10
 2de:	04 06       	mova	@r6,	r4	
 2e0:	06 08       	mova	@r8,	r6	
 2e2:	74 08 3c 00 	mova	r8,	60(r4)	;0x003c(r4)
 2e6:	02 04       	mova	@r4,	r2	
 2e8:	07 06       	mova	@r6,	r7	
 2ea:	d9 00       	cmpa	r0,	r9	
 2ec:	02 04       	mova	@r4,	r2	
 2ee:	01 06       	mova	@r6,	r1	
 2f0:	08 20       	jnz	$+18     	;abs 0x302
 2f2:	00 02       	bra	#4		;r2 As==10
 2f4:	04 02       	mova	#4,	r4	;r2 As==10
 2f6:	9e 82 00 02 	sub	&0x0200,1284(r14);0x0504(r14)
 2fa:	04 05 
 2fc:	9e 00 02 04 	cmpa	#0x00402,r14	
 300:	05 06       	mova	@r6,	r5	
 302:	03 d1       	.word	0xd103;	????	Illegal as 2-op instr
 304:	7d 66       	addc.b	@r6+,	r13	
 306:	00 02       	bra	#4		;r2 As==10
 308:	04 05       	mova	@r5,	r4	
 30a:	03 af       	.word	0xaf03;	????	Illegal as 2-op instr
 30c:	02 4a       	mov	r10,	r2	
 30e:	06 08       	mova	@r8,	r6	
 310:	20 06 33 83 	bra	&0x68333	
 314:	4d 68       	addc.b	r8,	r13	
 316:	02 3e       	jmp	$-1018   	;abs 0xff1c
 318:	13 68       	.word	0x6813;	????	Illegal as 2-op instr
 31a:	4b bd       	bit.b	r13,	r11	
 31c:	bc 03 09 08 	suba	#0x30809,r12	
 320:	e4 00       	adda	r0,	r4	
 322:	02 04       	mova	@r4,	r2	
 324:	01 03       	mova	#2,	r1	;r3 As==10
 326:	b4 7d 82 00 	subc	@r13+,	130(r4)	;0x0082(r4)
 32a:	02 04       	mova	@r4,	r2	
 32c:	01 03       	mova	#2,	r1	;r3 As==10
 32e:	ca 02       	mova	r2,	r10	
 330:	4a 06       	rlam.a	#2,	r10	
 332:	66 06 87 03 	mova	r6,	&0x60387
 336:	9b 7e 4a 6c 	subc	27722(r14),28232(r11);0x6c4a(r14), 0x6e48(r11)
 33a:	48 6e 
 33c:	03 0b       	.word	0x0b03;	????	Illegal as address instr
 33e:	4a 03       	rrum.a	#1,	r10	
 340:	7a 4a       	mov.b	@r10+,	r10	
 342:	49 00       	rrcm.a	#1,	r9	
 344:	02 04       	mova	@r4,	r2	
 346:	01 03       	mova	#2,	r1	;r3 As==10
 348:	54 2e       	jc	$-854    	;abs 0xfff2
 34a:	00 02       	bra	#4		;r2 As==10
 34c:	04 01       	mova	@r1,	r4	
 34e:	03 4f       	.word	0x4f03;	????	Illegal as 2-op instr
 350:	4a 03       	rrum.a	#1,	r10	
 352:	b8 02 9e 02 	suba	#0x2029e,r8	
 356:	0c 00       	mova	@r0,	r12	
 358:	01 01       	mova	@r1,	r1	
 35a:	49 00       	rrcm.a	#1,	r9	
 35c:	00 00       	bra	@r0		
 35e:	02 00       	mova	@r0,	r2	
 360:	26 00 00 00 	mova	&0x00000,r6	
 364:	01 01       	mova	@r1,	r1	
 366:	fb 0e       	suba	r14,	r11	
 368:	0d 00       	mova	@r0,	r13	
 36a:	01 01       	mova	@r1,	r1	
 36c:	01 01       	mova	@r1,	r1	
 36e:	00 00       	bra	@r0		
 370:	00 01       	bra	@r1		
 372:	00 00       	bra	@r0		
 374:	01 2e       	jc	$-1020   	;abs 0xff78
 376:	2f 73       	subc	#2,	r15	;r3 As==10
 378:	74 64       	addc.b	@r4+,	r4	
 37a:	6c 69       	addc.b	@r9,	r12	
 37c:	62 00 00 70 	mova	r0,	&0x27000
 380:	75 74       	subc.b	@r4+,	r5	
 382:	73 2e       	jc	$-792    	;abs 0x6a
 384:	63 00 01 00 	mova	r0,	&0x30001
 388:	00 00       	bra	@r0		
 38a:	00 03       	bra	#2		;r3 As==10
 38c:	02 d8       	bis	r8,	r2	
 38e:	90 03 23 01 	cmpa	#0x30123,r0	
 392:	00 02       	bra	#4		;r2 As==10
 394:	04 01       	mova	@r1,	r4	
 396:	4c 00       	rrcm.a	#1,	r12	
 398:	02 04       	mova	@r4,	r2	
 39a:	02 06       	mova	@r6,	r2	
 39c:	66 06 bc 68 	mova	r6,	&0x668bc
 3a0:	9d 30       	jn	$+316    	;abs 0x4dc
 3a2:	02 04       	mova	@r4,	r2	
 3a4:	00 01       	bra	@r1		
 3a6:	01 79       	subc	r9,	r1	
 3a8:	00 00       	bra	@r0		
 3aa:	00 02       	bra	#4		;r2 As==10
 3ac:	00 57       	add	r7,	r0	
 3ae:	00 00       	bra	@r0		
 3b0:	00 01       	bra	@r1		
 3b2:	01 fb       	and	r11,	r1	
 3b4:	0e 0d       	mova	@r13,	r14	
 3b6:	00 01       	bra	@r1		
 3b8:	01 01       	mova	@r1,	r1	
 3ba:	01 00       	mova	@r0,	r1	
 3bc:	00 00       	bra	@r0		
 3be:	01 00       	mova	@r0,	r1	
 3c0:	00 01       	bra	@r1		
 3c2:	2e 2e       	jc	$-930    	;abs 0x20
 3c4:	2f 2e       	jc	$-928    	;abs 0x24
 3c6:	2e 2f       	jc	$-418    	;abs 0x224
 3c8:	2e 2e       	jc	$-930    	;abs 0x26
 3ca:	2f 2e       	jc	$-928    	;abs 0x2a
 3cc:	2e 2f       	jc	$-418    	;abs 0x22a
 3ce:	2e 2e       	jc	$-930    	;abs 0x2c
 3d0:	2f 2e       	jc	$-928    	;abs 0x30
 3d2:	2e 2f       	jc	$-418    	;abs 0x230
 3d4:	67 63       	addc.b	#2,	r7	;r3 As==10
 3d6:	63 2d       	jc	$+712    	;abs 0x69e
 3d8:	34 2e       	jc	$-918    	;abs 0x42
 3da:	36 2e       	jc	$-914    	;abs 0x48
 3dc:	33 2f       	jc	$-408    	;abs 0x244
 3de:	6c 69       	addc.b	@r9,	r12	
 3e0:	62 67       	addc.b	@r7,	r2	
 3e2:	63 63       	.word	0x6363;	????	Illegal as 2-op instr
 3e4:	2f 2e       	jc	$-928    	;abs 0x44
 3e6:	2e 2f       	jc	$-418    	;abs 0x244
 3e8:	67 63       	addc.b	#2,	r7	;r3 As==10
 3ea:	63 2f       	jc	$-312    	;abs 0x2b2
 3ec:	63 6f       	.word	0x6f63;	????	Illegal as 2-op instr
 3ee:	6e 66       	addc.b	@r6,	r14	
 3f0:	69 67       	addc.b	@r7,	r9	
 3f2:	2f 6d       	addc	@r13,	r15	
 3f4:	73 70       	.word	0x7073;	????	Illegal as 2-op instr
 3f6:	34 33       	jn	$-406    	;abs 0x260
 3f8:	30 00 00 6c 	bra	27648(r0)	;PC rel. 0x06ffa
 3fc:	69 62       	addc.b	#4,	r9	;r2 As==10
 3fe:	67 63       	addc.b	#2,	r7	;r3 As==10
 400:	63 2e       	jc	$-824    	;abs 0xc8
 402:	53 00       	rrcm	#1,	#0	;r3 As==00
 404:	01 00       	mova	@r0,	r1	
 406:	00 00       	bra	@r0		
 408:	00 03       	bra	#2		;r3 As==10
 40a:	02 04       	mova	@r4,	r2	
 40c:	91 03 a4 04 	cmpa	#0x304a4,r1	
 410:	01 4b       	mov	r11,	r1	
 412:	2f 2f       	jc	$-416    	;abs 0x272
 414:	2f 2f       	jc	$-416    	;abs 0x274
 416:	2f 2f       	jc	$-416    	;abs 0x276
 418:	2f 2f       	jc	$-416    	;abs 0x278
 41a:	2f 2f       	jc	$-416    	;abs 0x27a
 41c:	34 4b       	mov	@r11+,	r4	
 41e:	2f 02 02 00 	mova	&0x20002,r15	
 422:	01 01       	mova	@r1,	r1	
 424:	84 00 00 00 	mova	#0x00000,r4	
 428:	02 00       	mova	@r0,	r2	
 42a:	57 00       	rrcm	#1,	r7	
 42c:	00 00       	bra	@r0		
 42e:	01 01       	mova	@r1,	r1	
 430:	fb 0e       	suba	r14,	r11	
 432:	0d 00       	mova	@r0,	r13	
 434:	01 01       	mova	@r1,	r1	
 436:	01 01       	mova	@r1,	r1	
 438:	00 00       	bra	@r0		
 43a:	00 01       	bra	@r1		
 43c:	00 00       	bra	@r0		
 43e:	01 2e       	jc	$-1020   	;abs 0x42
 440:	2e 2f       	jc	$-418    	;abs 0x29e
 442:	2e 2e       	jc	$-930    	;abs 0xa0
 444:	2f 2e       	jc	$-928    	;abs 0xa4
 446:	2e 2f       	jc	$-418    	;abs 0x2a4
 448:	2e 2e       	jc	$-930    	;abs 0xa6
 44a:	2f 2e       	jc	$-928    	;abs 0xaa
 44c:	2e 2f       	jc	$-418    	;abs 0x2aa
 44e:	2e 2e       	jc	$-930    	;abs 0xac
 450:	2f 67       	addc	@r7,	r15	
 452:	63 63       	.word	0x6363;	????	Illegal as 2-op instr
 454:	2d 34       	jge	$+92     	;abs 0x4b0
 456:	2e 36       	jge	$-930    	;abs 0xb4
 458:	2e 33       	jn	$-418    	;abs 0x2b6
 45a:	2f 6c       	addc	@r12,	r15	
 45c:	69 62       	addc.b	#4,	r9	;r2 As==10
 45e:	67 63       	addc.b	#2,	r7	;r3 As==10
 460:	63 2f       	jc	$-312    	;abs 0x328
 462:	2e 2e       	jc	$-930    	;abs 0xc0
 464:	2f 67       	addc	@r7,	r15	
 466:	63 63       	.word	0x6363;	????	Illegal as 2-op instr
 468:	2f 63       	addc	#2,	r15	;r3 As==10
 46a:	6f 6e       	addc.b	@r14,	r15	
 46c:	66 69       	addc.b	@r9,	r6	
 46e:	67 2f       	jc	$-304    	;abs 0x33e
 470:	6d 73       	subc.b	#2,	r13	;r3 As==10
 472:	70 34       	jge	$+226    	;abs 0x554
 474:	33 30       	jn	$+104    	;abs 0x4dc
 476:	00 00       	bra	@r0		
 478:	6c 69       	addc.b	@r9,	r12	
 47a:	62 67       	addc.b	@r7,	r2	
 47c:	63 63       	.word	0x6363;	????	Illegal as 2-op instr
 47e:	2e 53       	incd	r14		
 480:	00 01       	bra	@r1		
 482:	00 00       	bra	@r0		
 484:	00 00       	bra	@r0		
 486:	03 02       	.word	0x0203;	????	Illegal as address instr
 488:	26 91       	cmp	@r1,	r6	
 48a:	03 f6       	.word	0xf603;	????	Illegal as 2-op instr
 48c:	04 01       	mova	@r1,	r4	
 48e:	34 4b       	mov	@r11+,	r4	
 490:	2f 2f       	jc	$-416    	;abs 0x2f0
 492:	2f 2f       	jc	$-416    	;abs 0x2f2
 494:	2f 2f       	jc	$-416    	;abs 0x2f4
 496:	2f 2f       	jc	$-416    	;abs 0x2f6
 498:	2f 2f       	jc	$-416    	;abs 0x2f8
 49a:	2f 2f       	jc	$-416    	;abs 0x2fa
 49c:	2f 2f       	jc	$-416    	;abs 0x2fc
 49e:	2f 2f       	jc	$-416    	;abs 0x2fe
 4a0:	2f 30       	jn	$+96     	;abs 0x500
 4a2:	34 34       	jge	$+106    	;abs 0x50c
 4a4:	4b 2f       	jc	$-360    	;abs 0x33c
 4a6:	2f 02 02 00 	mova	&0x20002,r15	
 4aa:	01 01       	mova	@r1,	r1	
 4ac:	b2 00 00 00 	suba	#0x00000,r2	
 4b0:	02 00       	mova	@r0,	r2	
 4b2:	57 00       	rrcm	#1,	r7	
 4b4:	00 00       	bra	@r0		
 4b6:	01 01       	mova	@r1,	r1	
 4b8:	fb 0e       	suba	r14,	r11	
 4ba:	0d 00       	mova	@r0,	r13	
 4bc:	01 01       	mova	@r1,	r1	
 4be:	01 01       	mova	@r1,	r1	
 4c0:	00 00       	bra	@r0		
 4c2:	00 01       	bra	@r1		
 4c4:	00 00       	bra	@r0		
 4c6:	01 2e       	jc	$-1020   	;abs 0xca
 4c8:	2e 2f       	jc	$-418    	;abs 0x326
 4ca:	2e 2e       	jc	$-930    	;abs 0x128
 4cc:	2f 2e       	jc	$-928    	;abs 0x12c
 4ce:	2e 2f       	jc	$-418    	;abs 0x32c
 4d0:	2e 2e       	jc	$-930    	;abs 0x12e
 4d2:	2f 2e       	jc	$-928    	;abs 0x132
 4d4:	2e 2f       	jc	$-418    	;abs 0x332
 4d6:	2e 2e       	jc	$-930    	;abs 0x134
 4d8:	2f 67       	addc	@r7,	r15	
 4da:	63 63       	.word	0x6363;	????	Illegal as 2-op instr
 4dc:	2d 34       	jge	$+92     	;abs 0x538
 4de:	2e 36       	jge	$-930    	;abs 0x13c
 4e0:	2e 33       	jn	$-418    	;abs 0x33e
 4e2:	2f 6c       	addc	@r12,	r15	
 4e4:	69 62       	addc.b	#4,	r9	;r2 As==10
 4e6:	67 63       	addc.b	#2,	r7	;r3 As==10
 4e8:	63 2f       	jc	$-312    	;abs 0x3b0
 4ea:	2e 2e       	jc	$-930    	;abs 0x148
 4ec:	2f 67       	addc	@r7,	r15	
 4ee:	63 63       	.word	0x6363;	????	Illegal as 2-op instr
 4f0:	2f 63       	addc	#2,	r15	;r3 As==10
 4f2:	6f 6e       	addc.b	@r14,	r15	
 4f4:	66 69       	addc.b	@r9,	r6	
 4f6:	67 2f       	jc	$-304    	;abs 0x3c6
 4f8:	6d 73       	subc.b	#2,	r13	;r3 As==10
 4fa:	70 34       	jge	$+226    	;abs 0x5dc
 4fc:	33 30       	jn	$+104    	;abs 0x564
 4fe:	00 00       	bra	@r0		
 500:	6c 69       	addc.b	@r9,	r12	
 502:	62 67       	addc.b	@r7,	r2	
 504:	63 63       	.word	0x6363;	????	Illegal as 2-op instr
 506:	2e 53       	incd	r14		
 508:	00 01       	bra	@r1		
 50a:	00 00       	bra	@r0		
 50c:	00 00       	bra	@r0		
 50e:	03 02       	.word	0x0203;	????	Illegal as address instr
 510:	5e 91 03 e4 	cmp.b	-7165(r1),r14	;0xe403(r1)
 514:	05 01       	mova	@r1,	r5	
 516:	35 4b       	mov	@r11+,	r5	
 518:	2f 2f       	jc	$-416    	;abs 0x378
 51a:	2f 2f       	jc	$-416    	;abs 0x37a
 51c:	2f 2f       	jc	$-416    	;abs 0x37c
 51e:	2f 2f       	jc	$-416    	;abs 0x37e
 520:	2f 2f       	jc	$-416    	;abs 0x380
 522:	2f 2f       	jc	$-416    	;abs 0x382
 524:	2f 2f       	jc	$-416    	;abs 0x384
 526:	2f 2f       	jc	$-416    	;abs 0x386
 528:	2f 2f       	jc	$-416    	;abs 0x388
 52a:	2f 2f       	jc	$-416    	;abs 0x38a
 52c:	2f 2f       	jc	$-416    	;abs 0x38c
 52e:	2f 2f       	jc	$-416    	;abs 0x38e
 530:	2f 2f       	jc	$-416    	;abs 0x390
 532:	2f 2f       	jc	$-416    	;abs 0x392
 534:	2f 2f       	jc	$-416    	;abs 0x394
 536:	2f 2f       	jc	$-416    	;abs 0x396
 538:	4b 2f       	jc	$-360    	;abs 0x3d0
 53a:	30 35       	jge	$+610    	;abs 0x79c
 53c:	35 35       	jge	$+620    	;abs 0x7a8
 53e:	4b 4b       	mov.b	r11,	r11	
 540:	4b 4c       	mov.b	r12,	r11	
 542:	4c 35       	jge	$+666    	;abs 0x7dc
 544:	34 35       	jge	$+618    	;abs 0x7ae
 546:	4b 4b       	mov.b	r11,	r11	
 548:	4b 4c       	mov.b	r12,	r11	
 54a:	4b 2f       	jc	$-360    	;abs 0x3e2
 54c:	2f 2f       	jc	$-416    	;abs 0x3ac
 54e:	30 35       	jge	$+610    	;abs 0x7b0
 550:	34 36       	jge	$-918    	;abs 0x1ba
 552:	4b 4b       	mov.b	r11,	r11	
 554:	4b 4c       	mov.b	r12,	r11	
 556:	4c 4b       	mov.b	r11,	r12	
 558:	4b 4b       	mov.b	r11,	r11	
 55a:	4b 4d       	mov.b	r13,	r11	
 55c:	36 02 02 00 	mova	&0x0002,r6	
 560:	01 01       	mova	@r1,	r1	
 562:	58 00       	rrcm	#1,	r8	
 564:	00 00       	bra	@r0		
 566:	02 00       	mova	@r0,	r2	
 568:	42 00       	rrcm.a	#1,	r2	
 56a:	00 00       	bra	@r0		
 56c:	01 01       	mova	@r1,	r1	
 56e:	fb 0e       	suba	r14,	r11	
 570:	0d 00       	mova	@r0,	r13	
 572:	01 01       	mova	@r1,	r1	
 574:	01 01       	mova	@r1,	r1	
 576:	00 00       	bra	@r0		
 578:	00 01       	bra	@r1		
 57a:	00 00       	bra	@r0		
 57c:	01 2e       	jc	$-1020   	;abs 0x180
 57e:	2e 2f       	jc	$-418    	;abs 0x3dc
 580:	2e 2e       	jc	$-930    	;abs 0x1de
 582:	2f 2e       	jc	$-928    	;abs 0x1e2
 584:	2e 2f       	jc	$-418    	;abs 0x3e2
 586:	67 63       	addc.b	#2,	r7	;r3 As==10
 588:	63 2d       	jc	$+712    	;abs 0x850
 58a:	34 2e       	jc	$-918    	;abs 0x1f4
 58c:	36 2e       	jc	$-914    	;abs 0x1fa
 58e:	33 2f       	jc	$-408    	;abs 0x3f6
 590:	67 63       	addc.b	#2,	r7	;r3 As==10
 592:	63 2f       	jc	$-312    	;abs 0x45a
 594:	63 6f       	.word	0x6f63;	????	Illegal as 2-op instr
 596:	6e 66       	addc.b	@r6,	r14	
 598:	69 67       	addc.b	@r7,	r9	
 59a:	2f 6d       	addc	@r13,	r15	
 59c:	73 70       	.word	0x7073;	????	Illegal as 2-op instr
 59e:	34 33       	jn	$-406    	;abs 0x408
 5a0:	30 00 00 63 	bra	25344(r0)	;PC rel. 0x068a2
 5a4:	72 74       	subc.b	@r4+,	r2	
 5a6:	30 2e       	jc	$-926    	;abs 0x208
 5a8:	53 00       	rrcm	#1,	#0	;r3 As==00
 5aa:	01 00       	mova	@r0,	r1	
 5ac:	00 00       	bra	@r0		
 5ae:	00 03       	bra	#2		;r3 As==10
 5b0:	02 00       	mova	@r0,	r2	
 5b2:	80 03 e8 00 	bra	#0x300e8	
 5b6:	01 4b       	mov	r11,	r1	
 5b8:	4b 02       	rlam.a	#1,	r11	
 5ba:	04 00       	mova	@r0,	r4	
 5bc:	01 01       	mova	@r1,	r1	
 5be:	56 00       	rrcm	#1,	r6	
 5c0:	00 00       	bra	@r0		
 5c2:	02 00       	mova	@r0,	r2	
 5c4:	42 00       	rrcm.a	#1,	r2	
 5c6:	00 00       	bra	@r0		
 5c8:	01 01       	mova	@r1,	r1	
 5ca:	fb 0e       	suba	r14,	r11	
 5cc:	0d 00       	mova	@r0,	r13	
 5ce:	01 01       	mova	@r1,	r1	
 5d0:	01 01       	mova	@r1,	r1	
 5d2:	00 00       	bra	@r0		
 5d4:	00 01       	bra	@r1		
 5d6:	00 00       	bra	@r0		
 5d8:	01 2e       	jc	$-1020   	;abs 0x1dc
 5da:	2e 2f       	jc	$-418    	;abs 0x438
 5dc:	2e 2e       	jc	$-930    	;abs 0x23a
 5de:	2f 2e       	jc	$-928    	;abs 0x23e
 5e0:	2e 2f       	jc	$-418    	;abs 0x43e
 5e2:	67 63       	addc.b	#2,	r7	;r3 As==10
 5e4:	63 2d       	jc	$+712    	;abs 0x8ac
 5e6:	34 2e       	jc	$-918    	;abs 0x250
 5e8:	36 2e       	jc	$-914    	;abs 0x256
 5ea:	33 2f       	jc	$-408    	;abs 0x452
 5ec:	67 63       	addc.b	#2,	r7	;r3 As==10
 5ee:	63 2f       	jc	$-312    	;abs 0x4b6
 5f0:	63 6f       	.word	0x6f63;	????	Illegal as 2-op instr
 5f2:	6e 66       	addc.b	@r6,	r14	
 5f4:	69 67       	addc.b	@r7,	r9	
 5f6:	2f 6d       	addc	@r13,	r15	
 5f8:	73 70       	.word	0x7073;	????	Illegal as 2-op instr
 5fa:	34 33       	jn	$-406    	;abs 0x464
 5fc:	30 00 00 63 	bra	25344(r0)	;PC rel. 0x068fe
 600:	72 74       	subc.b	@r4+,	r2	
 602:	30 2e       	jc	$-926    	;abs 0x264
 604:	53 00       	rrcm	#1,	#0	;r3 As==00
 606:	01 00       	mova	@r0,	r1	
 608:	00 00       	bra	@r0		
 60a:	00 03       	bra	#2		;r3 As==10
 60c:	02 0c       	mova	@r12,	r2	
 60e:	80 03 99 01 	bra	#0x30199	
 612:	01 02       	mova	#4,	r1	;r2 As==10
 614:	04 00       	mova	@r0,	r4	
 616:	01 01       	mova	@r1,	r1	
 618:	5c 00       	rrcm	#1,	r12	
 61a:	00 00       	bra	@r0		
 61c:	02 00       	mova	@r0,	r2	
 61e:	42 00       	rrcm.a	#1,	r2	
 620:	00 00       	bra	@r0		
 622:	01 01       	mova	@r1,	r1	
 624:	fb 0e       	suba	r14,	r11	
 626:	0d 00       	mova	@r0,	r13	
 628:	01 01       	mova	@r1,	r1	
 62a:	01 01       	mova	@r1,	r1	
 62c:	00 00       	bra	@r0		
 62e:	00 01       	bra	@r1		
 630:	00 00       	bra	@r0		
 632:	01 2e       	jc	$-1020   	;abs 0x236
 634:	2e 2f       	jc	$-418    	;abs 0x492
 636:	2e 2e       	jc	$-930    	;abs 0x294
 638:	2f 2e       	jc	$-928    	;abs 0x298
 63a:	2e 2f       	jc	$-418    	;abs 0x498
 63c:	67 63       	addc.b	#2,	r7	;r3 As==10
 63e:	63 2d       	jc	$+712    	;abs 0x906
 640:	34 2e       	jc	$-918    	;abs 0x2aa
 642:	36 2e       	jc	$-914    	;abs 0x2b0
 644:	33 2f       	jc	$-408    	;abs 0x4ac
 646:	67 63       	addc.b	#2,	r7	;r3 As==10
 648:	63 2f       	jc	$-312    	;abs 0x510
 64a:	63 6f       	.word	0x6f63;	????	Illegal as 2-op instr
 64c:	6e 66       	addc.b	@r6,	r14	
 64e:	69 67       	addc.b	@r7,	r9	
 650:	2f 6d       	addc	@r13,	r15	
 652:	73 70       	.word	0x7073;	????	Illegal as 2-op instr
 654:	34 33       	jn	$-406    	;abs 0x4be
 656:	30 00 00 63 	bra	25344(r0)	;PC rel. 0x06958
 65a:	72 74       	subc.b	@r4+,	r2	
 65c:	30 2e       	jc	$-926    	;abs 0x2be
 65e:	53 00       	rrcm	#1,	#0	;r3 As==00
 660:	01 00       	mova	@r0,	r1	
 662:	00 00       	bra	@r0		
 664:	00 03       	bra	#2		;r3 As==10
 666:	02 10       	rrc	r2		
 668:	80 03 bc 01 	bra	#0x301bc	
 66c:	01 4b       	mov	r11,	r1	
 66e:	2f 30       	jn	$+96     	;abs 0x6ce
 670:	67 2f       	jc	$-304    	;abs 0x540
 672:	67 02 02 00 	mova	r2,	&0x70002
 676:	01 01       	mova	@r1,	r1	
 678:	5c 00       	rrcm	#1,	r12	
 67a:	00 00       	bra	@r0		
 67c:	02 00       	mova	@r0,	r2	
 67e:	42 00       	rrcm.a	#1,	r2	
 680:	00 00       	bra	@r0		
 682:	01 01       	mova	@r1,	r1	
 684:	fb 0e       	suba	r14,	r11	
 686:	0d 00       	mova	@r0,	r13	
 688:	01 01       	mova	@r1,	r1	
 68a:	01 01       	mova	@r1,	r1	
 68c:	00 00       	bra	@r0		
 68e:	00 01       	bra	@r1		
 690:	00 00       	bra	@r0		
 692:	01 2e       	jc	$-1020   	;abs 0x296
 694:	2e 2f       	jc	$-418    	;abs 0x4f2
 696:	2e 2e       	jc	$-930    	;abs 0x2f4
 698:	2f 2e       	jc	$-928    	;abs 0x2f8
 69a:	2e 2f       	jc	$-418    	;abs 0x4f8
 69c:	67 63       	addc.b	#2,	r7	;r3 As==10
 69e:	63 2d       	jc	$+712    	;abs 0x966
 6a0:	34 2e       	jc	$-918    	;abs 0x30a
 6a2:	36 2e       	jc	$-914    	;abs 0x310
 6a4:	33 2f       	jc	$-408    	;abs 0x50c
 6a6:	67 63       	addc.b	#2,	r7	;r3 As==10
 6a8:	63 2f       	jc	$-312    	;abs 0x570
 6aa:	63 6f       	.word	0x6f63;	????	Illegal as 2-op instr
 6ac:	6e 66       	addc.b	@r6,	r14	
 6ae:	69 67       	addc.b	@r7,	r9	
 6b0:	2f 6d       	addc	@r13,	r15	
 6b2:	73 70       	.word	0x7073;	????	Illegal as 2-op instr
 6b4:	34 33       	jn	$-406    	;abs 0x51e
 6b6:	30 00 00 63 	bra	25344(r0)	;PC rel. 0x069b8
 6ba:	72 74       	subc.b	@r4+,	r2	
 6bc:	30 2e       	jc	$-926    	;abs 0x31e
 6be:	53 00       	rrcm	#1,	#0	;r3 As==00
 6c0:	01 00       	mova	@r0,	r1	
 6c2:	00 00       	bra	@r0		
 6c4:	00 03       	bra	#2		;r3 As==10
 6c6:	02 28       	jnc	$+6      	;abs 0x6cc
 6c8:	80 03 d6 01 	bra	#0x301d6	
 6cc:	01 4b       	mov	r11,	r1	
 6ce:	2f 30       	jn	$+96     	;abs 0x72e
 6d0:	67 2f       	jc	$-304    	;abs 0x5a0
 6d2:	4b 02       	rlam.a	#1,	r11	
 6d4:	02 00       	mova	@r0,	r2	
 6d6:	01 01       	mova	@r1,	r1	
 6d8:	57 00       	rrcm	#1,	r7	
 6da:	00 00       	bra	@r0		
 6dc:	02 00       	mova	@r0,	r2	
 6de:	42 00       	rrcm.a	#1,	r2	
 6e0:	00 00       	bra	@r0		
 6e2:	01 01       	mova	@r1,	r1	
 6e4:	fb 0e       	suba	r14,	r11	
 6e6:	0d 00       	mova	@r0,	r13	
 6e8:	01 01       	mova	@r1,	r1	
 6ea:	01 01       	mova	@r1,	r1	
 6ec:	00 00       	bra	@r0		
 6ee:	00 01       	bra	@r1		
 6f0:	00 00       	bra	@r0		
 6f2:	01 2e       	jc	$-1020   	;abs 0x2f6
 6f4:	2e 2f       	jc	$-418    	;abs 0x552
 6f6:	2e 2e       	jc	$-930    	;abs 0x354
 6f8:	2f 2e       	jc	$-928    	;abs 0x358
 6fa:	2e 2f       	jc	$-418    	;abs 0x558
 6fc:	67 63       	addc.b	#2,	r7	;r3 As==10
 6fe:	63 2d       	jc	$+712    	;abs 0x9c6
 700:	34 2e       	jc	$-918    	;abs 0x36a
 702:	36 2e       	jc	$-914    	;abs 0x370
 704:	33 2f       	jc	$-408    	;abs 0x56c
 706:	67 63       	addc.b	#2,	r7	;r3 As==10
 708:	63 2f       	jc	$-312    	;abs 0x5d0
 70a:	63 6f       	.word	0x6f63;	????	Illegal as 2-op instr
 70c:	6e 66       	addc.b	@r6,	r14	
 70e:	69 67       	addc.b	@r7,	r9	
 710:	2f 6d       	addc	@r13,	r15	
 712:	73 70       	.word	0x7073;	????	Illegal as 2-op instr
 714:	34 33       	jn	$-406    	;abs 0x57e
 716:	30 00 00 63 	bra	25344(r0)	;PC rel. 0x06a18
 71a:	72 74       	subc.b	@r4+,	r2	
 71c:	30 2e       	jc	$-926    	;abs 0x37e
 71e:	53 00       	rrcm	#1,	#0	;r3 As==00
 720:	01 00       	mova	@r0,	r1	
 722:	00 00       	bra	@r0		
 724:	00 03       	bra	#2		;r3 As==10
 726:	02 ee       	xor	r14,	r2	
 728:	80 03 fe 01 	bra	#0x301fe	
 72c:	01 4b       	mov	r11,	r1	
 72e:	02 02       	mova	#4,	r2	;r2 As==10
 730:	00 01       	bra	@r1		
 732:	01 56       	add	r6,	r1	
 734:	00 00       	bra	@r0		
 736:	00 02       	bra	#4		;r2 As==10
 738:	00 42       	br	r2		
 73a:	00 00       	bra	@r0		
 73c:	00 01       	bra	@r1		
 73e:	01 fb       	and	r11,	r1	
 740:	0e 0d       	mova	@r13,	r14	
 742:	00 01       	bra	@r1		
 744:	01 01       	mova	@r1,	r1	
 746:	01 00       	mova	@r0,	r1	
 748:	00 00       	bra	@r0		
 74a:	01 00       	mova	@r0,	r1	
 74c:	00 01       	bra	@r1		
 74e:	2e 2e       	jc	$-930    	;abs 0x3ac
 750:	2f 2e       	jc	$-928    	;abs 0x3b0
 752:	2e 2f       	jc	$-418    	;abs 0x5b0
 754:	2e 2e       	jc	$-930    	;abs 0x3b2
 756:	2f 67       	addc	@r7,	r15	
 758:	63 63       	.word	0x6363;	????	Illegal as 2-op instr
 75a:	2d 34       	jge	$+92     	;abs 0x7b6
 75c:	2e 36       	jge	$-930    	;abs 0x3ba
 75e:	2e 33       	jn	$-418    	;abs 0x5bc
 760:	2f 67       	addc	@r7,	r15	
 762:	63 63       	.word	0x6363;	????	Illegal as 2-op instr
 764:	2f 63       	addc	#2,	r15	;r3 As==10
 766:	6f 6e       	addc.b	@r14,	r15	
 768:	66 69       	addc.b	@r9,	r6	
 76a:	67 2f       	jc	$-304    	;abs 0x63a
 76c:	6d 73       	subc.b	#2,	r13	;r3 As==10
 76e:	70 34       	jge	$+226    	;abs 0x850
 770:	33 30       	jn	$+104    	;abs 0x7d8
 772:	00 00       	bra	@r0		
 774:	63 72       	.word	0x7263;	????	Illegal as 2-op instr
 776:	74 30       	jn	$+234    	;abs 0x860
 778:	2e 53       	incd	r14		
 77a:	00 01       	bra	@r1		
 77c:	00 00       	bra	@r0		
 77e:	00 00       	bra	@r0		
 780:	03 02       	.word	0x0203;	????	Illegal as address instr
 782:	1a 92 03 cd 	cmp	&0xcd03,r10	
 786:	02 01       	mova	@r1,	r2	
 788:	02 02       	mova	#4,	r2	;r2 As==10
 78a:	00 01       	bra	@r1		
 78c:	01 63       	Address 0x000000000000078c is out of bounds.
Address 0x000000000000078e is out of bounds.
and.b	@r15+,	-1(r15)	;0xffff(r15)

Disassembly of section .debug_frame:

00000000 <.debug_frame>:
   0:	0e 00       	mova	@r0,	r14	
   2:	00 00       	bra	@r0		
   4:	ff ff ff ff 	and.b	@r15+,	-1(r15)	;0xffff(r15)
   8:	01 00       	mova	@r0,	r1	
   a:	01 7e       	subc	r14,	r1	
   c:	00 0c       	bra	@r12		
   e:	01 02       	mova	#4,	r1	;r2 As==10
  10:	80 01 08 00 	bra	#0x10008	
  14:	00 00       	bra	@r0		
  16:	00 00       	bra	@r0		
  18:	00 00       	bra	@r0		
  1a:	a2 88 10 00 	sub	@r8,	&0x0010	
  1e:	08 00       	mova	@r0,	r8	
  20:	00 00       	bra	@r0		
  22:	00 00       	bra	@r0		
  24:	00 00       	bra	@r0		
  26:	b2 88 0e 00 	sub	@r8+,	&0x000e	
  2a:	0e 00       	mova	@r0,	r14	
  2c:	00 00       	bra	@r0		
  2e:	ff ff ff ff 	and.b	@r15+,	-1(r15)	;0xffff(r15)
  32:	01 00       	mova	@r0,	r1	
  34:	01 7e       	subc	r14,	r1	
  36:	00 0c       	bra	@r12		
  38:	01 02       	mova	#4,	r1	;r2 As==10
  3a:	80 01 1e 00 	bra	#0x1001e	
  3e:	00 00       	bra	@r0		
  40:	2a 00 00 00 	mova	&0x00000,r10	
  44:	c0 88 7c 01 	sub.b	r8,	380(r0)	;PC rel. 0x01c2
  48:	42 0e       	rlam.a	#4,	r2	
  4a:	12 84 09 85 	sub	-31479(r4),r2	;0x8509(r4)
  4e:	08 86       	sub	r6,	r8	
  50:	07 87       	sub	r7,	r7	
  52:	06 88       	sub	r8,	r6	
  54:	05 89       	sub	r9,	r5	
  56:	04 8a       	sub	r10,	r4	
  58:	03 8b       	.word	0x8b03;	????	Illegal as 2-op instr
  5a:	02 42       	mov	r2,	r2	
  5c:	0e 1a       	.word	0x1a0e;	????	
  5e:	4c 00       	rrcm.a	#1,	r12	
  60:	00 00       	bra	@r0		
  62:	2a 00 00 00 	mova	&0x00000,r10	
  66:	3c 8a       	sub	@r10+,	r12	
  68:	9c 06 42 0e 	cmpa	#0x60e42,r12	
  6c:	12 84 09 85 	sub	-31479(r4),r2	;0x8509(r4)
  70:	08 86       	sub	r6,	r8	
  72:	07 87       	sub	r7,	r7	
  74:	06 88       	sub	r8,	r6	
  76:	05 89       	sub	r9,	r5	
  78:	04 8a       	sub	r10,	r4	
  7a:	03 8b       	.word	0x8b03;	????	Illegal as 2-op instr
  7c:	02 44       	mov	r4,	r2	
  7e:	0e 66       	addc	r6,	r14	
  80:	03 92       	.word	0x9203;	????	Illegal as 2-op instr
  82:	02 0e       	mova	@r14,	r2	
  84:	6a 48       	mov.b	@r8,	r10	
  86:	2e 04 46 0e 	mova	&0x40e46,r14	
  8a:	66 03 8c 01 	mova	#0,	&0x6018c;r3 As==00
  8e:	0e 6e       	rlc	r14		
  90:	4e 2e       	jc	$-866    	;abs 0xfd2e
  92:	08 46       	mov	r6,	r8	
  94:	0e 66       	addc	r6,	r14	
  96:	70 0e 6e 54 	mova	r14,	21614(r0);PC rel. 0x05506
  9a:	0e 66       	addc	r6,	r14	
  9c:	02 72       	subc	r2,	r2	
  9e:	2e 00 03 32 	mova	&0x03203,r14	
  a2:	01 0e       	mova	@r14,	r1	
  a4:	6a 4c       	mov.b	@r12,	r10	
  a6:	2e 04 46 0e 	mova	&0x40e46,r14	
  aa:	66 4a       	mov.b	@r10,	r6	
  ac:	2e 00 0e 00 	mova	&0x0000e,r14	
  b0:	00 00       	bra	@r0		
  b2:	ff ff ff ff 	and.b	@r15+,	-1(r15)	;0xffff(r15)
  b6:	01 00       	mova	@r0,	r1	
  b8:	01 7e       	subc	r14,	r1	
  ba:	00 0c       	bra	@r12		
  bc:	01 02       	mova	#4,	r1	;r2 As==10
  be:	80 01 0e 00 	bra	#0x1000e	
  c2:	00 00       	bra	@r0		
  c4:	ae 00 00 00 	adda	#0x00000,r14	
  c8:	d8 90 2c 00 	cmp.b	44(r0),	3650(r8);PC rel. 0x00f6, 0x0e42(r8)
  cc:	42 0e 
  ce:	04 8b       	sub	r11,	r4	
  d0:	02 00       	mova	@r0,	r2	

Disassembly of section .debug_str:

00000000 <.debug_str>:
   0:	5f 5f 62 75 	add.b	30050(r15),r15	;0x7562(r15)
   4:	69 6c       	addc.b	@r12,	r9	
   6:	74 69       	addc.b	@r9+,	r4	
   8:	6e 5f       	add.b	@r15,	r14	
   a:	76 61       	addc.b	@r1+,	r6	
   c:	5f 6c 69 73 	addc.b	29545(r12),r15	;0x7369(r12)
  10:	74 00 76 70 	mova	r0,	28790(r4);0x7076(r4)
  14:	72 69       	addc.b	@r9+,	r2	
  16:	6e 74       	subc.b	@r4,	r14	
  18:	66 00 2e 2f 	mova	r0,	&0x62f2e
  1c:	73 74       	.word	0x7473;	????	Illegal as 2-op instr
  1e:	64 6c       	addc.b	@r12,	r4	
  20:	69 62       	addc.b	#4,	r9	;r2 As==10
  22:	2f 70       	subc	@r0,	r15	
  24:	72 69       	addc.b	@r9+,	r2	
  26:	6e 74       	subc.b	@r4,	r14	
  28:	66 2e       	jc	$-818    	;abs 0xfcf6
  2a:	63 00 5f 5f 	mova	r0,	&0x35f5f
  2e:	67 6e       	addc.b	@r14,	r7	
  30:	75 63       	addc.b	#-1,	r5	;r3 As==11
  32:	5f 76 61 5f 	subc.b	24417(r6),r15	;0x5f61(r6)
  36:	6c 69       	addc.b	@r9,	r12	
  38:	73 74       	.word	0x7473;	????	Illegal as 2-op instr
  3a:	00 75       	subc	r5,	r0	
  3c:	6e 73       	subc.b	#2,	r14	;r3 As==10
  3e:	69 67       	addc.b	@r7,	r9	
  40:	6e 65       	addc.b	@r5,	r14	
  42:	64 20       	jnz	$+202    	;abs 0x10c
  44:	63 68       	.word	0x6863;	????	Illegal as 2-op instr
  46:	61 72       	subc.b	#4,	r1	;r2 As==10
  48:	00 73       	sbc	r0		
  4a:	68 6f       	addc.b	@r15,	r8	
  4c:	72 74       	subc.b	@r4+,	r2	
  4e:	20 75       	subc	@r5,	r0	
  50:	6e 73       	subc.b	#2,	r14	;r3 As==10
  52:	69 67       	addc.b	@r7,	r9	
  54:	6e 65       	addc.b	@r5,	r14	
  56:	64 20       	jnz	$+202    	;abs 0x120
  58:	69 6e       	addc.b	@r14,	r9	
  5a:	74 00 6c 6f 	mova	r0,	28524(r4);0x6f6c(r4)
  5e:	6e 67       	addc.b	@r7,	r14	
  60:	20 6c       	addc	@r12,	r0	
  62:	6f 6e       	addc.b	@r14,	r15	
  64:	67 20       	jnz	$+208    	;abs 0x134
  66:	75 6e       	addc.b	@r14+,	r5	
  68:	73 69       	.word	0x6973;	????	Illegal as 2-op instr
  6a:	67 6e       	addc.b	@r14,	r7	
  6c:	65 64       	addc.b	@r4,	r5	
  6e:	20 69       	addc	@r9,	r0	
  70:	6e 74       	subc.b	@r4,	r14	
  72:	00 6c       	addc	r12,	r0	
  74:	6f 6e       	addc.b	@r14,	r15	
  76:	67 20       	jnz	$+208    	;abs 0x146
  78:	6c 6f       	addc.b	@r15,	r12	
  7a:	6e 67       	addc.b	@r7,	r14	
  7c:	20 69       	addc	@r9,	r0	
  7e:	6e 74       	subc.b	@r4,	r14	
  80:	00 47       	br	r7		
  82:	4e 55       	add.b	r5,	r14	
  84:	20 43       	br	#2		;r3 As==10
  86:	20 34       	jge	$+66     	;abs 0xc8
  88:	2e 36       	jge	$-930    	;abs 0xfce6
  8a:	2e 33       	jn	$-418    	;abs 0xfee8
  8c:	20 32       	jn	$-958    	;abs 0xfcce
  8e:	30 31       	jn	$+610    	;abs 0x2f0
  90:	32 30       	jn	$+102    	;abs 0xf6
  92:	33 30       	jn	$+104    	;abs 0xfa
  94:	31 20       	jnz	$+100    	;abs 0xf8
  96:	28 6d       	addc	@r13,	r8	
  98:	73 70       	.word	0x7073;	????	Illegal as 2-op instr
  9a:	67 63       	addc.b	#2,	r7	;r3 As==10
  9c:	63 20       	jnz	$+200    	;abs 0x164
  9e:	4c 54       	add.b	r4,	r12	
  a0:	53 20       	jnz	$+168    	;abs 0x148
  a2:	32 30       	jn	$+102    	;abs 0x108
  a4:	31 32       	jn	$-924    	;abs 0xfd08
  a6:	30 34       	jge	$+98     	;abs 0x108
  a8:	30 36       	jge	$-926    	;abs 0xfd0a
  aa:	20 75       	subc	@r5,	r0	
  ac:	6e 70       	subc.b	@r0,	r14	
  ae:	61 74       	subc.b	@r4,	r1	
  b0:	63 68       	.word	0x6863;	????	Illegal as 2-op instr
  b2:	65 64       	addc.b	@r4,	r5	
  b4:	29 00 61 72 	mova	&0x07261,r9	
  b8:	67 70       	subc.b	@r0,	r7	
  ba:	00 2f       	jc	$-510    	;abs 0xfebc
  bc:	75 73       	subc.b	#-1,	r5	;r3 As==11
  be:	72 2f       	jc	$-282    	;abs 0xffa4
  c0:	6c 6f       	addc.b	@r15,	r12	
  c2:	63 61       	.word	0x6163;	????	Illegal as 2-op instr
  c4:	6c 2f       	jc	$-294    	;abs 0xff9e
  c6:	6d 73       	subc.b	#2,	r13	;r3 As==10
  c8:	70 34       	jge	$+226    	;abs 0x1aa
  ca:	33 30       	jn	$+104    	;abs 0x132
  cc:	2f 6d       	addc	@r13,	r15	
  ce:	73 70       	.word	0x7073;	????	Illegal as 2-op instr
  d0:	67 63       	addc.b	#2,	r7	;r3 As==10
  d2:	63 2d       	jc	$+712    	;abs 0x39a
  d4:	69 6e       	addc.b	@r14,	r9	
  d6:	73 74       	.word	0x7473;	????	Illegal as 2-op instr
  d8:	61 6c       	addc.b	@r12,	r1	
  da:	6c 2f       	jc	$-294    	;abs 0xffb4
  dc:	6d 73       	subc.b	#2,	r13	;r3 As==10
  de:	70 67       	addc.b	@r7+,	r0	
  e0:	63 63       	.word	0x6363;	????	Illegal as 2-op instr
  e2:	2d 32       	jn	$-932    	;abs 0xfd3e
  e4:	30 31       	jn	$+610    	;abs 0x346
  e6:	32 30       	jn	$+102    	;abs 0x14c
  e8:	34 30       	jn	$+106    	;abs 0x152
  ea:	36 2f       	jc	$-402    	;abs 0xff58
  ec:	6d 73       	subc.b	#2,	r13	;r3 As==10
  ee:	70 34       	jge	$+226    	;abs 0x1d0
  f0:	33 30       	jn	$+104    	;abs 0x158
  f2:	2d 6c       	addc	@r12,	r13	
  f4:	69 62       	addc.b	#4,	r9	;r2 As==10
  f6:	63 2d       	jc	$+712    	;abs 0x3be
  f8:	32 30       	jn	$+102    	;abs 0x15e
  fa:	31 32       	jn	$-924    	;abs 0xfd5e
  fc:	30 32       	jn	$-926    	;abs 0xfd5e
  fe:	32 34       	jge	$+102    	;abs 0x164
 100:	2f 73       	subc	#2,	r15	;r3 As==10
 102:	72 63       	addc.b	#-1,	r2	;r3 As==11
 104:	00 62       	addc	r2,	r0	
 106:	61 64       	addc.b	@r4,	r1	
 108:	5f 66 6f 72 	addc.b	29295(r6),r15	;0x726f(r6)
 10c:	6d 61       	addc.b	@r1,	r13	
 10e:	74 00 75 69 	mova	r0,	26997(r4);0x6975(r4)
 112:	6e 74       	subc.b	@r4,	r14	
 114:	36 34       	jge	$+110    	;abs 0x182
 116:	5f 74 00 69 	subc.b	26880(r4),r15	;0x6900(r4)
 11a:	6e 74       	subc.b	@r4,	r14	
 11c:	70 74       	subc.b	@r4+,	r0	
 11e:	72 5f       	add.b	@r15+,	r2	
 120:	74 00 6d 6f 	mova	r0,	28525(r4);0x6f6d(r4)
 124:	64 65       	addc.b	@r5,	r4	
 126:	00 65       	addc	r5,	r0	
 128:	6d 69       	addc.b	@r9,	r13	
 12a:	74 5f       	add.b	@r15+,	r4	
 12c:	6f 63       	addc.b	#2,	r15	;r3 As==10
 12e:	74 61       	addc.b	@r1+,	r4	
 130:	6c 5f       	add.b	@r15,	r12	
 132:	70 72       	subc.b	#8,	r0	;r2 As==11
 134:	65 66       	addc.b	@r6,	r5	
 136:	69 78       	subc.b	@r8,	r9	
 138:	00 6c       	addc	r12,	r0	
 13a:	65 61       	addc.b	@r1,	r5	
 13c:	64 69       	addc.b	@r9,	r4	
 13e:	6e 67       	addc.b	@r7,	r14	
 140:	5f 66 69 6c 	addc.b	27753(r6),r15	;0x6c69(r6)
 144:	6c 00 77 72 	mova	r0,	&0xc7277
 148:	69 74       	subc.b	@r4,	r9	
 14a:	65 5f       	add.b	@r15,	r5	
 14c:	63 68       	.word	0x6863;	????	Illegal as 2-op instr
 14e:	61 72       	subc.b	#4,	r1	;r2 As==10
 150:	00 75       	subc	r5,	r0	
 152:	69 6e       	addc.b	@r14,	r9	
 154:	74 38       	jl	$+234    	;abs 0x23e
 156:	5f 74 00 65 	subc.b	25856(r4),r15	;0x6500(r4)
 15a:	6d 69       	addc.b	@r9,	r13	
 15c:	74 5f       	add.b	@r15+,	r4	
 15e:	68 65       	addc.b	@r5,	r8	
 160:	78 5f       	add.b	@r15+,	r8	
 162:	70 72       	subc.b	#8,	r0	;r2 As==11
 164:	65 66       	addc.b	@r6,	r5	
 166:	69 78       	subc.b	@r8,	r9	
 168:	00 70       	subc	r0,	r0	
 16a:	72 65       	addc.b	@r5+,	r2	
 16c:	66 69       	addc.b	@r9,	r6	
 16e:	78 5f       	add.b	@r15+,	r8	
 170:	6c 65       	addc.b	@r5,	r12	
 172:	6e 00 63 68 	mova	r0,	&0xe6863
 176:	61 72       	subc.b	#4,	r1	;r2 As==10
 178:	5f 70 00 44 	subc.b	17408(r0),r15	;PC rel. 0x457a
 17c:	49 52       	add.b	r2,	r9	
 17e:	45 43       	clr.b	r5		
 180:	54 00       	rrcm	#1,	r4	
 182:	69 73       	subc.b	#2,	r9	;r3 As==10
 184:	5f 7a 65 72 	subc.b	29285(r10),r15	;0x7265(r10)
 188:	6f 00 69 73 	mova	r0,	&0xf7369
 18c:	5f 61 6c 74 	addc.b	29804(r1),r15	;0x746c(r1)
 190:	65 72       	subc.b	#4,	r5	;r2 As==10
 192:	6e 61       	addc.b	@r1,	r14	
 194:	74 65       	addc.b	@r5+,	r4	
 196:	5f 66 6f 72 	addc.b	29295(r6),r15	;0x726f(r6)
 19a:	6d 00 69 73 	mova	r0,	&0xd7369
 19e:	5f 6e 65 67 	addc.b	26469(r14),r15	;0x6765(r14)
 1a2:	61 74       	subc.b	@r4,	r1	
 1a4:	69 76       	subc.b	@r6,	r9	
 1a6:	65 00 69 73 	mova	r0,	&0x57369
 1aa:	5f 6c 6f 6e 	addc.b	28271(r12),r15	;0x6e6f(r12)
 1ae:	67 36       	jge	$-816    	;abs 0xfe7e
 1b0:	34 00 73 70 	mova	28787(r0),r4	;PC rel. 0x07225
 1b4:	65 63       	addc.b	#2,	r5	;r3 As==10
 1b6:	69 66       	addc.b	@r6,	r9	
 1b8:	69 65       	addc.b	@r5,	r9	
 1ba:	72 00 75 70 	mova	r0,	&0x7075	
 1be:	70 65       	addc.b	@r5+,	r0	
 1c0:	72 63       	addc.b	#-1,	r2	;r3 As==11
 1c2:	61 73       	subc.b	#2,	r1	;r3 As==10
 1c4:	65 00 7a 65 	mova	r0,	&0x5657a
 1c8:	72 6f       	addc.b	@r15+,	r2	
 1ca:	5f 70 61 64 	subc.b	25697(r0),r15	;PC rel. 0x662d
 1ce:	5f 70 72 65 	subc.b	25970(r0),r15	;PC rel. 0x6742
 1d2:	63 69       	.word	0x6963;	????	Illegal as 2-op instr
 1d4:	73 69       	.word	0x6973;	????	Illegal as 2-op instr
 1d6:	6f 6e       	addc.b	@r14,	r15	
 1d8:	00 68       	addc	r8,	r0	
 1da:	61 76       	subc.b	@r6,	r1	
 1dc:	65 5f       	add.b	@r15,	r5	
 1de:	77 70 5f 76 	subc.b	#30303,	r7	;#0x765f
 1e2:	61 6c       	addc.b	@r12,	r1	
 1e4:	75 65       	addc.b	@r5+,	r5	
 1e6:	00 46       	br	r6		
 1e8:	4f 52       	add.b	r2,	r15	
 1ea:	4d 41       	mov.b	r1,	r13	
 1ec:	54 49 4e 47 	mov.b	18254(r9),r4	;0x474e(r9)
 1f0:	00 70       	subc	r0,	r0	
 1f2:	72 69       	addc.b	@r9+,	r2	
 1f4:	6e 74       	subc.b	@r4,	r14	
 1f6:	5f 66 69 65 	addc.b	25961(r6),r15	;0x6569(r6)
 1fa:	6c 64       	addc.b	@r4,	r12	
 1fc:	00 66       	addc	r6,	r0	
 1fe:	65 74       	subc.b	@r4,	r5	
 200:	63 68       	.word	0x6863;	????	Illegal as 2-op instr
 202:	5f 6e 75 6d 	addc.b	28021(r14),r15	;0x6d75(r14)
 206:	62 65       	addc.b	@r5,	r2	
 208:	72 00 70 72 	mova	r0,	&0x7270	
 20c:	65 66       	addc.b	@r6,	r5	
 20e:	69 78       	subc.b	@r8,	r9	
 210:	5f 69 64 78 	addc.b	30820(r9),r15	;0x7864(r9)
 214:	00 66       	addc	r6,	r0	
 216:	6c 61       	addc.b	@r1,	r12	
 218:	67 73       	subc.b	#2,	r7	;r3 As==10
 21a:	00 75       	subc	r5,	r0	
 21c:	69 6e       	addc.b	@r14,	r9	
 21e:	74 33       	jn	$-278    	;abs 0x108
 220:	32 5f       	add	@r15+,	r2	
 222:	74 00 69 73 	mova	r0,	29545(r4);0x7369(r4)
 226:	5f 6c 6f 6e 	addc.b	28271(r12),r15	;0x6e6f(r12)
 22a:	67 33       	jn	$-304    	;abs 0xfa
 22c:	32 00 75 69 	mova	26997(r0),r2	;PC rel. 0x06ba3
 230:	6e 74       	subc.b	@r4,	r14	
 232:	31 36       	jge	$-924    	;abs 0xfe96
 234:	5f 74 00 61 	subc.b	24832(r4),r15	;0x6100(r4)
 238:	72 67       	addc.b	@r7+,	r2	
 23a:	73 00       	.word	0x0073;	????	Illegal as address instr
 23c:	70 72       	subc.b	#8,	r0	;r2 As==11
 23e:	65 66       	addc.b	@r6,	r5	
 240:	69 78       	subc.b	@r8,	r9	
 242:	5f 62 75 66 	addc.b	&0x6675,r15	
 246:	66 65       	addc.b	@r5,	r6	
 248:	72 00 72 61 	mova	r0,	&0x6172	
 24c:	64 69       	addc.b	@r9,	r4	
 24e:	78 00 68 61 	mova	r0,	24936(r8);0x6168(r8)
 252:	76 65       	addc.b	@r5+,	r6	
 254:	5f 70 72 65 	subc.b	25970(r0),r15	;PC rel. 0x67c8
 258:	63 69       	.word	0x6963;	????	Illegal as 2-op instr
 25a:	73 69       	.word	0x6973;	????	Illegal as 2-op instr
 25c:	6f 6e       	addc.b	@r14,	r15	
 25e:	00 5f       	add	r15,	r0	
 260:	42 6f       	addc.b	r15,	r2	
 262:	6f 6c       	addc.b	@r12,	r15	
 264:	00 6e       	addc	r14,	r0	
 266:	75 6d       	addc.b	@r13+,	r5	
 268:	62 65       	addc.b	@r5,	r2	
 26a:	72 5f       	add.b	@r15+,	r2	
 26c:	77 69       	addc.b	@r9+,	r7	
 26e:	64 74       	subc.b	@r4,	r4	
 270:	68 00 77 72 	mova	r0,	&0x87277
 274:	69 74       	subc.b	@r4,	r9	
 276:	65 5f       	add.b	@r15,	r5	
 278:	63 68       	.word	0x6863;	????	Illegal as 2-op instr
 27a:	61 72       	subc.b	#4,	r1	;r2 As==10
 27c:	61 63       	addc.b	#2,	r1	;r3 As==10
 27e:	74 65       	addc.b	@r5+,	r4	
 280:	72 00 73 69 	mova	r0,	&0x6973	
 284:	67 6e       	addc.b	@r14,	r7	
 286:	5f 63       	addc.b	#1,	r15	;r3 As==01
 288:	68 61       	addc.b	@r1,	r8	
 28a:	72 00 76 75 	mova	r0,	&0x7576	
 28e:	70 72       	subc.b	#8,	r0	;r2 As==11
 290:	69 6e       	addc.b	@r14,	r9	
 292:	74 66       	addc.b	@r6+,	r4	
 294:	00 74       	subc	r4,	r0	
 296:	72 75       	subc.b	@r5+,	r2	
 298:	6e 63       	addc.b	#2,	r14	;r3 As==10
 29a:	61 74       	subc.b	@r4,	r1	
 29c:	65 5f       	add.b	@r15,	r5	
 29e:	70 72       	subc.b	#8,	r0	;r2 As==11
 2a0:	65 63       	addc.b	#2,	r5	;r3 As==10
 2a2:	69 73       	subc.b	#2,	r9	;r3 As==10
 2a4:	69 6f       	addc.b	@r15,	r9	
 2a6:	6e 00 69 73 	mova	r0,	&0xe7369
 2aa:	5f 73       	subc.b	#1,	r15	;r3 As==01
 2ac:	69 67       	addc.b	@r7,	r9	
 2ae:	6e 65       	addc.b	@r5,	r14	
 2b0:	64 00 66 6c 	mova	r0,	&0x46c66
 2b4:	61 67       	addc.b	@r7,	r1	
 2b6:	73 5f       	.word	0x5f73;	????	Illegal as 2-op instr
 2b8:	74 00 66 69 	mova	r0,	26982(r4);0x6966(r4)
 2bc:	6c 6c       	addc.b	@r12,	r12	
 2be:	5f 7a 65 72 	subc.b	29285(r10),r15	;0x7265(r10)
 2c2:	6f 00 2e 2f 	mova	r0,	&0xf2f2e
 2c6:	73 74       	.word	0x7473;	????	Illegal as 2-op instr
 2c8:	64 6c       	addc.b	@r12,	r4	
 2ca:	69 62       	addc.b	#4,	r9	;r2 As==10
 2cc:	2f 76       	subc	@r6,	r15	
 2ce:	75 70 72 69 	subc.b	#26994,	r5	;#0x6972
 2d2:	6e 74       	subc.b	@r4,	r14	
 2d4:	66 2e       	jc	$-818    	;abs 0xffa2
 2d6:	63 00 64 69 	mova	r0,	&0x36964
 2da:	67 69       	addc.b	@r9,	r7	
 2dc:	74 00 63 68 	mova	r0,	26723(r4);0x6863(r4)
 2e0:	61 72       	subc.b	#4,	r1	;r2 As==10
 2e2:	61 63       	addc.b	#2,	r1	;r3 As==10
 2e4:	74 65       	addc.b	@r5+,	r4	
 2e6:	72 5f       	add.b	@r15+,	r2	
 2e8:	63 6f       	.word	0x6f63;	????	Illegal as 2-op instr
 2ea:	75 6e       	addc.b	@r14+,	r5	
 2ec:	74 00 65 6d 	mova	r0,	28005(r4);0x6d65(r4)
 2f0:	69 74       	subc.b	@r4,	r9	
 2f2:	5f 73       	subc.b	#1,	r15	;r3 As==01
 2f4:	74 72       	subc.b	#8,	r4	;r2 As==11
 2f6:	69 6e       	addc.b	@r14,	r9	
 2f8:	67 00 6c 65 	mova	r0,	&0x7656c
 2fc:	66 74       	subc.b	@r4,	r6	
 2fe:	5f 61 6c 69 	addc.b	26988(r1),r15	;0x696c(r1)
 302:	67 6e       	addc.b	@r14,	r7	
 304:	00 65       	addc	r5,	r0	
 306:	6d 69       	addc.b	@r9,	r13	
 308:	74 5f       	add.b	@r15+,	r4	
 30a:	6e 75       	subc.b	@r5,	r14	
 30c:	6d 62       	addc.b	#4,	r13	;r2 As==10
 30e:	65 72       	subc.b	#4,	r5	;r2 As==10
 310:	00 62       	addc	r2,	r0	
 312:	75 69       	addc.b	@r9+,	r5	
 314:	6c 64       	addc.b	@r4,	r12	
 316:	5f 6e 75 6d 	addc.b	28021(r14),r15	;0x6d75(r14)
 31a:	65 72       	subc.b	#4,	r5	;r2 As==10
 31c:	69 63       	addc.b	#2,	r9	;r3 As==10
 31e:	5f 70 72 65 	subc.b	25970(r0),r15	;PC rel. 0x6892
 322:	66 69       	addc.b	@r9,	r6	
 324:	78 00 70 75 	mova	r0,	30064(r8);0x7570(r8)
 328:	74 73       	subc.b	#-1,	r4	;r3 As==11
 32a:	00 2e       	jc	$-1022   	;abs 0xff2c
 32c:	2f 73       	subc	#2,	r15	;r3 As==10
 32e:	74 64       	addc.b	@r4+,	r4	
 330:	6c 69       	addc.b	@r9,	r12	
 332:	62 2f       	jc	$-314    	;abs 0x1f8
 334:	70 75       	subc.b	@r5+,	r0	
 336:	74 73       	subc.b	#-1,	r4	;r3 As==11
 338:	2e 63       	addc	#2,	r14	;r3 As==10
	...

Disassembly of section .debug_loc:

00000000 <.debug_loc>:
   0:	06 00       	mova	@r0,	r6	
   2:	0d 00       	mova	@r0,	r13	
   4:	01 00       	mova	@r0,	r1	
   6:	5d 0d       	rram	#4,	r13	
   8:	00 10       	rrc	r0		
   a:	00 03       	bra	#2		;r3 As==10
   c:	00 91       	cmp	r1,	r0	
   e:	02 9f       	cmp	r15,	r2	
  10:	00 00       	bra	@r0		
  12:	00 00       	bra	@r0		
  14:	10 00       	bra	#0x00000	
  16:	18 00       	mova	#0x00000,r8	
  18:	01 00       	mova	@r0,	r1	
  1a:	5f 18       	.word	0x185f;	????	
  1c:	00 1b       	.word	0x1b00;	????	
  1e:	00 01       	bra	@r1		
  20:	00 5e       	add	r14,	r0	
  22:	00 00       	bra	@r0		
  24:	00 00       	bra	@r0		
  26:	10 00       	bra	#0x00000	
  28:	14 00       	mova	#0x00000,r4	
  2a:	01 00       	mova	@r0,	r1	
  2c:	5e 14       	pushm.a	#6,	r14	
  2e:	00 1b       	.word	0x1b00;	????	
  30:	00 01       	bra	@r1		
  32:	00 5d       	add	r13,	r0	
  34:	00 00       	bra	@r0		
  36:	00 00       	bra	@r0		
  38:	00 00       	bra	@r0		
  3a:	02 00       	mova	@r0,	r2	
  3c:	02 00       	mova	@r0,	r2	
  3e:	71 02 02 00 	mova	r2,	2(r1)	;0x0002(r1)
  42:	04 00       	mova	@r0,	r4	
  44:	02 00       	mova	@r0,	r2	
  46:	71 12       	push.b	@r1+		
  48:	04 00       	mova	@r0,	r4	
  4a:	7c 01 02 00 	mova	r1,	2(r12)	;0x0002(r12)
  4e:	71 1a       	.word	0x1a71;	????	
  50:	00 00       	bra	@r0		
  52:	00 00       	bra	@r0		
  54:	00 00       	bra	@r0		
  56:	10 00       	bra	#0x00000	
  58:	01 00       	mova	@r0,	r1	
  5a:	5f 10 00 7c 	rrc.b	31744(r15)	;0x7c00(r15)
  5e:	01 01       	mova	@r1,	r1	
  60:	00 58       	add	r8,	r0	
  62:	00 00       	bra	@r0		
  64:	00 00       	bra	@r0		
  66:	00 00       	bra	@r0		
  68:	1e 00       	mova	#0x00000,r14	
  6a:	01 00       	mova	@r0,	r1	
  6c:	5e 1e 00 50 	.rpt	#15
				addx	r0,	r0	
  70:	01 02       	mova	#4,	r1	;r2 As==10
  72:	00 91       	cmp	r1,	r0	
  74:	6a 00 00 00 	mova	r0,	&0xa0000
  78:	00 00       	bra	@r0		
  7a:	00 14       	pushm.a	#1,	r0	
  7c:	00 01       	bra	@r1		
  7e:	00 5d       	add	r13,	r0	
  80:	14 00       	mova	#0x00000,r4	
  82:	7c 01 01 00 	mova	r1,	1(r12)	;0x0001(r12)
  86:	59 00       	rrcm	#1,	r9	
  88:	00 00       	bra	@r0		
  8a:	00 00       	bra	@r0		
  8c:	00 16       	popm.a	#1,	r0	
  8e:	00 02       	bra	#4		;r2 As==10
  90:	00 91       	cmp	r1,	r0	
  92:	00 16       	popm.a	#1,	r0	
  94:	00 1a       	.word	0x1a00;	????	
  96:	00 07       	bra	@r7		
  98:	00 93       	tst	r0		
  9a:	02 5c       	add	r12,	r2	
  9c:	93 01       	.word	0x0193;	????	Illegal as address instr
  9e:	93 01       	.word	0x0193;	????	Illegal as address instr
  a0:	1a 00       	mova	#0x00000,r10	
  a2:	42 00       	rrcm.a	#1,	r2	
  a4:	08 00       	mova	@r0,	r8	
  a6:	93 02       	.word	0x0293;	????	Illegal as address instr
  a8:	5c 93       	cmp.b	#1,	r12	;r3 As==01
  aa:	01 54       	add	r4,	r1	
  ac:	93 01       	.word	0x0193;	????	Illegal as address instr
  ae:	42 00       	rrcm.a	#1,	r2	
  b0:	46 00       	rrcm.a	#1,	r6	
  b2:	05 00       	mova	@r0,	r5	
  b4:	93 03       	.word	0x0393;	????	Illegal as address instr
  b6:	54 93       	cmp.b	#1,	r4	;r3 As==01
  b8:	01 46       	mov	r6,	r1	
  ba:	00 5e       	add	r14,	r0	
  bc:	00 08       	bra	@r8		
  be:	00 93       	tst	r0		
  c0:	02 5c       	add	r12,	r2	
  c2:	93 01       	.word	0x0193;	????	Illegal as address instr
  c4:	54 93       	cmp.b	#1,	r4	;r3 As==01
  c6:	01 5e       	add	r14,	r1	
  c8:	00 62       	addc	r2,	r0	
  ca:	00 05       	bra	@r5		
  cc:	00 93       	tst	r0		
  ce:	03 54       	.word	0x5403;	????	Illegal as 2-op instr
  d0:	93 01       	.word	0x0193;	????	Illegal as address instr
  d2:	62 00 64 00 	mova	r0,	&0x20064
  d6:	08 00       	mova	@r0,	r8	
  d8:	93 02       	.word	0x0293;	????	Illegal as address instr
  da:	5c 93       	cmp.b	#1,	r12	;r3 As==01
  dc:	01 54       	add	r4,	r1	
  de:	93 01       	.word	0x0193;	????	Illegal as address instr
  e0:	64 00 36 01 	mova	r0,	&0x40136
  e4:	05 00       	mova	@r0,	r5	
  e6:	93 03       	.word	0x0393;	????	Illegal as address instr
  e8:	54 93       	cmp.b	#1,	r4	;r3 As==01
  ea:	01 3e       	jmp	$-1020   	;abs 0xfcee
  ec:	01 50       	add	r0,	r1	
  ee:	01 05       	mova	@r5,	r1	
  f0:	00 93       	tst	r0		
  f2:	03 54       	.word	0x5403;	????	Illegal as 2-op instr
  f4:	93 01       	.word	0x0193;	????	Illegal as address instr
  f6:	00 00       	bra	@r0		
  f8:	00 00       	bra	@r0		
  fa:	1a 00       	mova	#0x00000,r10	
  fc:	00 01       	bra	@r1		
  fe:	02 00       	mova	@r0,	r2	
 100:	30 9f       	cmp	@r15+,	r0	
 102:	00 01       	bra	@r1		
 104:	14 01       	mova	@r1+,	r4	
 106:	01 00       	mova	@r0,	r1	
 108:	5b 14       	pushm.a	#6,	r11	
 10a:	01 1a       	.word	0x1a01;	????	
 10c:	01 02       	mova	#4,	r1	;r2 As==10
 10e:	00 30       	jn	$+2      	;abs 0x110
 110:	9f 1a       	.word	0x1a9f;	????	
 112:	01 36       	jge	$-1020   	;abs 0xfd16
 114:	01 01       	mova	@r1,	r1	
 116:	00 5b       	add	r11,	r0	
 118:	50 01       	rram	#1,	r0	
 11a:	7c 01 01 00 	mova	r1,	1(r12)	;0x0001(r12)
 11e:	5b 00       	rrcm	#1,	r11	
 120:	00 00       	bra	@r0		
 122:	00 1a 00 e0 	xorx	r0,	r0	
 126:	00 02       	bra	#4		;r2 As==10
 128:	00 30       	jn	$+2      	;abs 0x12a
 12a:	9f e0 00 ee 	xor	-4608(r0),256(r15);PC rel. 0xef2c, 0x0100(r15)
 12e:	00 01 
 130:	00 56       	add	r6,	r0	
 132:	ee 00       	adda	r0,	r14	
 134:	f0 00       	suba	r0,	r0	
 136:	02 00       	mova	@r0,	r2	
 138:	30 9f       	cmp	@r15+,	r0	
 13a:	f0 00       	suba	r0,	r0	
 13c:	fc 00       	suba	r0,	r12	
 13e:	01 00       	mova	@r0,	r1	
 140:	56 00       	rrcm	#1,	r6	
 142:	01 14       	pushm.a	#1,	r1	
 144:	01 01       	mova	@r1,	r1	
 146:	00 56       	add	r6,	r0	
 148:	14 01       	mova	@r1+,	r4	
 14a:	1a 01       	mova	@r1+,	r10	
 14c:	02 00       	mova	@r0,	r2	
 14e:	30 9f       	cmp	@r15+,	r0	
 150:	1a 01       	mova	@r1+,	r10	
 152:	7c 01 01 00 	mova	r1,	1(r12)	;0x0001(r12)
 156:	56 00       	rrcm	#1,	r6	
 158:	00 00       	bra	@r0		
 15a:	00 1c 00 94 	cmpx	r4,	r0	
 15e:	00 01       	bra	@r1		
 160:	00 55       	add	r5,	r0	
 162:	94 00 50 01 	cmpa	#0x00150,r4	
 166:	01 00       	mova	@r0,	r1	
 168:	57 50 01 52 	add.b	20993(r0),r7	;PC rel. 0x536b
 16c:	01 03       	mova	#2,	r1	;r3 As==10
 16e:	00 77       	subc	r7,	r0	
 170:	7f 9f       	cmp.b	@r15+,	r15	
 172:	52 01       	rram	#1,	r2	
 174:	62 01 01 00 	mova	r1,	&0x20001
 178:	57 62 01 68 	addc.b	&0x6801,r7	
 17c:	01 03       	mova	#2,	r1	;r3 As==10
 17e:	00 77       	subc	r7,	r0	
 180:	7f 9f       	cmp.b	@r15+,	r15	
 182:	00 00       	bra	@r0		
 184:	00 00       	bra	@r0		
 186:	1c 00       	mova	#0x00000,r12	
 188:	2c 00 08 00 	mova	&0x00008,r12	
 18c:	93 02       	.word	0x0293;	????	Illegal as address instr
 18e:	5c 93       	cmp.b	#1,	r12	;r3 As==01
 190:	01 54       	add	r4,	r1	
 192:	93 01       	.word	0x0193;	????	Illegal as address instr
 194:	46 00       	rrcm.a	#1,	r6	
 196:	5e 00       	rrcm	#1,	r14	
 198:	07 00       	mova	@r0,	r7	
 19a:	93 02       	.word	0x0293;	????	Illegal as address instr
 19c:	5c 93       	cmp.b	#1,	r12	;r3 As==01
 19e:	01 93       	tst	r1		
 1a0:	01 62       	addc	r2,	r1	
 1a2:	00 64       	addc	r4,	r0	
 1a4:	00 07       	bra	@r7		
 1a6:	00 93       	tst	r0		
 1a8:	02 5c       	add	r12,	r2	
 1aa:	93 01       	.word	0x0193;	????	Illegal as address instr
 1ac:	93 01       	.word	0x0193;	????	Illegal as address instr
 1ae:	3e 01 50 01 	mova	336(r1),r14	;0x0150(r1)
 1b2:	05 00       	mova	@r0,	r5	
 1b4:	93 03       	.word	0x0393;	????	Illegal as address instr
 1b6:	54 93       	cmp.b	#1,	r4	;r3 As==01
 1b8:	01 00       	mova	@r0,	r1	
 1ba:	00 00       	bra	@r0		
 1bc:	00 1c 00 78 	subcx	r8,	r0	
 1c0:	01 01       	mova	@r1,	r1	
 1c2:	00 51       	add	r1,	r0	
 1c4:	78 01 7c 01 	mova	r1,	380(r8)	;0x017c(r8)
 1c8:	03 00       	.word	0x0003;	????	Illegal as address instr
 1ca:	91 66 9f 00 	addc	159(r6),0(r1)	;0x009f(r6), 0x0000(r1)
 1ce:	00 00 
 1d0:	00 1c       	.word	0x1c00;	????	
 1d2:	00 2a       	jnc	$-1022   	;abs 0xfdd4
 1d4:	00 01       	bra	@r1		
 1d6:	00 51       	add	r1,	r0	
 1d8:	2a 00 40 00 	mova	&0x00040,r10	
 1dc:	03 00       	.word	0x0003;	????	Illegal as address instr
 1de:	91 67 9f 40 	addc	16543(r7),17920(r1);0x409f(r7), 0x4600(r1)
 1e2:	00 46 
 1e4:	00 03       	bra	#2		;r3 As==10
 1e6:	00 91       	cmp	r1,	r0	
 1e8:	68 9f       	cmp.b	@r15,	r8	
 1ea:	46 00       	rrcm.a	#1,	r6	
 1ec:	52 00       	rrcm	#1,	r2	
 1ee:	01 00       	mova	@r0,	r1	
 1f0:	51 52 00 54 	add.b	&0x5400,r1	
 1f4:	00 03       	bra	#2		;r3 As==10
 1f6:	00 91       	cmp	r1,	r0	
 1f8:	67 9f       	cmp.b	@r15,	r7	
 1fa:	54 00       	rrcm	#1,	r4	
 1fc:	5c 00       	rrcm	#1,	r12	
 1fe:	01 00       	mova	@r0,	r1	
 200:	51 5c 00 62 	add.b	25088(r12),r1	;0x6200(r12)
 204:	00 03       	bra	#2		;r3 As==10
 206:	00 91       	cmp	r1,	r0	
 208:	67 9f       	cmp.b	@r15,	r7	
 20a:	62 00 64 00 	mova	r0,	&0x20064
 20e:	01 00       	mova	@r0,	r1	
 210:	51 64 00 68 	addc.b	26624(r4),r1	;0x6800(r4)
 214:	00 01       	bra	@r1		
 216:	00 5c       	add	r12,	r0	
 218:	68 00 82 00 	mova	r0,	&0x80082
 21c:	01 00       	mova	@r0,	r1	
 21e:	5a 00       	rrcm	#1,	r10	
 220:	00 00       	bra	@r0		
 222:	00 9c       	cmp	r12,	r0	
 224:	00 00       	bra	@r0		
 226:	01 03       	mova	#2,	r1	;r3 As==10
 228:	00 08       	bra	@r8		
 22a:	20 9f       	cmp	@r15,	r0	
 22c:	00 01       	bra	@r1		
 22e:	14 01       	mova	@r1+,	r4	
 230:	02 00       	mova	@r0,	r2	
 232:	91 6c 00 00 	addc	0(r12),	0(r1)	;0x0000(r12), 0x0000(r1)
 236:	00 00 
 238:	ae 00 d0 00 	adda	#0x000d0,r14	
 23c:	01 00       	mova	@r0,	r1	
 23e:	5d d0 00 fe 	bis.b	-512(r0),r13	;PC rel. 0x0040
 242:	00 01       	bra	@r1		
 244:	00 55       	add	r5,	r0	
 246:	00 00       	bra	@r0		
 248:	00 00       	bra	@r0		
 24a:	7c 01 7e 01 	mova	r1,	382(r12);0x017e(r12)
 24e:	02 00       	mova	@r0,	r2	
 250:	71 02 7e 01 	mova	r2,	382(r1)	;0x017e(r1)
 254:	82 01 02 00 	mova	#0x10002,r2	
 258:	71 12       	push.b	@r1+		
 25a:	82 01 14 04 	mova	#0x10414,r2	
 25e:	03 00       	.word	0x0003;	????	Illegal as address instr
 260:	71 e6       	xor.b	@r6+,	r1	
 262:	00 14       	pushm.a	#1,	r0	
 264:	04 22       	jnz	$-1014   	;abs 0xfe6e
 266:	04 03       	mova	#2,	r4	;r3 As==10
 268:	00 71       	subc	r1,	r0	
 26a:	ea 00       	adda	r0,	r10	
 26c:	22 04 ae 05 	mova	&0x405ae,r2	
 270:	03 00       	.word	0x0003;	????	Illegal as address instr
 272:	71 e6       	xor.b	@r6+,	r1	
 274:	00 ae       	dadd	r14,	r0	
 276:	05 c2       	bic	r2,	r5	
 278:	05 03       	mova	#2,	r5	;r3 As==10
 27a:	00 71       	subc	r1,	r0	
 27c:	ee 00       	adda	r0,	r14	
 27e:	c2 05       	mova	r5,	r2	
 280:	f2 05       	suba	r5,	r2	
 282:	03 00       	.word	0x0003;	????	Illegal as address instr
 284:	71 e6       	xor.b	@r6+,	r1	
 286:	00 f2       	and	r2,	r0	
 288:	05 06       	mova	@r6,	r5	
 28a:	06 03       	mova	#2,	r6	;r3 As==10
 28c:	00 71       	subc	r1,	r0	
 28e:	ee 00       	adda	r0,	r14	
 290:	06 06       	mova	@r6,	r6	
 292:	aa 07 03 00 	adda	#0x70003,r10	
 296:	71 e6       	xor.b	@r6+,	r1	
 298:	00 aa       	dadd	r10,	r0	
 29a:	07 bc       	bit	r12,	r7	
 29c:	07 03       	mova	#2,	r7	;r3 As==10
 29e:	00 71       	subc	r1,	r0	
 2a0:	ea 00       	adda	r0,	r10	
 2a2:	bc 07 18 08 	suba	#0x70818,r12	
 2a6:	03 00       	.word	0x0003;	????	Illegal as address instr
 2a8:	71 e6       	xor.b	@r6+,	r1	
 2aa:	00 00       	bra	@r0		
 2ac:	00 00       	bra	@r0		
 2ae:	00 7c       	subc	r12,	r0	
 2b0:	01 ae       	dadd	r14,	r1	
 2b2:	01 01       	mova	@r1,	r1	
 2b4:	00 5f       	add	r15,	r0	
 2b6:	ae 01 18 08 	adda	#0x10818,r14	
 2ba:	02 00       	mova	@r0,	r2	
 2bc:	91 54 00 00 	add	0(r4),	0(r1)	;0x0000(r4), 0x0000(r1)
 2c0:	00 00 
 2c2:	7c 01 cc 01 	mova	r1,	460(r12);0x01cc(r12)
 2c6:	01 00       	mova	@r0,	r1	
 2c8:	5e cc 01 0d 	bic.b	3329(r12),r14	;0x0d01(r12)
 2cc:	02 03       	mova	#2,	r2	;r3 As==10
 2ce:	00 7c       	subc	r12,	r0	
 2d0:	01 9f       	cmp	r15,	r1	
 2d2:	0d 02       	mova	#4,	r13	;r2 As==10
 2d4:	02 08       	mova	@r8,	r2	
 2d6:	02 00       	mova	@r0,	r2	
 2d8:	91 5c 02 08 	add	2050(r12),2052(r1);0x0802(r12), 0x0804(r1)
 2dc:	04 08 
 2de:	01 00       	mova	@r0,	r1	
 2e0:	5c 04       	rrcm	#2,	r12	
 2e2:	08 18       	.word	0x1808;	????	
 2e4:	08 03       	mova	#2,	r8	;r3 As==10
 2e6:	00 7c       	subc	r12,	r0	
 2e8:	01 9f       	cmp	r15,	r1	
 2ea:	00 00       	bra	@r0		
 2ec:	00 00       	bra	@r0		
 2ee:	7c 01 cc 01 	mova	r1,	460(r12);0x01cc(r12)
 2f2:	01 00       	mova	@r0,	r1	
 2f4:	5d cc 01 02 	bic.b	513(r12),r13	;0x0201(r12)
 2f8:	02 03       	mova	#2,	r2	;r3 As==10
 2fa:	00 91       	cmp	r1,	r0	
 2fc:	b8 7f 02 02 	subc	@r15+,	514(r8)	;0x0202(r8)
 300:	06 02       	mova	#4,	r6	;r2 As==10
 302:	01 00       	mova	@r0,	r1	
 304:	58 06       	rlam	#2,	r8	
 306:	02 30       	jn	$+6      	;abs 0x30c
 308:	03 03       	.word	0x0303;	????	Illegal as address instr
 30a:	00 91       	cmp	r1,	r0	
 30c:	b8 7f 30 03 	subc	@r15+,	816(r8)	;0x0330(r8)
 310:	60 03 01 00 	mova	#0,	&0x00001;r3 As==00
 314:	5c 60 03 b8 	addc.b	-18429(r0),r12	;PC rel. 0xbb19
 318:	03 03       	.word	0x0303;	????	Illegal as address instr
 31a:	00 91       	cmp	r1,	r0	
 31c:	b8 7f b8 03 	subc	@r15+,	952(r8)	;0x03b8(r8)
 320:	d8 03       	tsta	r8		
 322:	01 00       	mova	@r0,	r1	
 324:	58 d8 03 de 	bis.b	-8701(r8),r8	;0xde03(r8)
 328:	03 03       	.word	0x0303;	????	Illegal as address instr
 32a:	00 91       	cmp	r1,	r0	
 32c:	b8 7f de 03 	subc	@r15+,	990(r8)	;0x03de(r8)
 330:	2e 04 01 00 	mova	&0x40001,r14	
 334:	58 2e       	jc	$-846    	;abs 0xffe6
 336:	04 34       	jge	$+10     	;abs 0x340
 338:	04 03       	mova	#2,	r4	;r3 As==10
 33a:	00 91       	cmp	r1,	r0	
 33c:	b8 7f 34 04 	subc	@r15+,	1076(r8);0x0434(r8)
 340:	60 04 01 00 	mova	r4,	&0x00001
 344:	58 60 04 84 	addc.b	-31740(r0),r8	;PC rel. 0x874a
 348:	04 03       	mova	#2,	r4	;r3 As==10
 34a:	00 91       	cmp	r1,	r0	
 34c:	b8 7f 84 04 	subc	@r15+,	1156(r8);0x0484(r8)
 350:	c6 04       	mova	r4,	r6	
 352:	01 00       	mova	@r0,	r1	
 354:	5e c6 04 d0 	bic.b	-12284(r6),r14	;0xd004(r6)
 358:	04 03       	mova	#2,	r4	;r3 As==10
 35a:	00 91       	cmp	r1,	r0	
 35c:	b8 7f d0 04 	subc	@r15+,	1232(r8);0x04d0(r8)
 360:	e8 04       	adda	r4,	r8	
 362:	01 00       	mova	@r0,	r1	
 364:	58 e8 04 ea 	xor.b	-5628(r8),r8	;0xea04(r8)
 368:	04 03       	mova	#2,	r4	;r3 As==10
 36a:	00 91       	cmp	r1,	r0	
 36c:	b8 7f ea 04 	subc	@r15+,	1258(r8);0x04ea(r8)
 370:	0c 05       	mova	@r5,	r12	
 372:	01 00       	mova	@r0,	r1	
 374:	58 0c       	rrcm	#4,	r8	
 376:	05 f0       	and	r0,	r5	
 378:	07 03       	mova	#2,	r7	;r3 As==10
 37a:	00 91       	cmp	r1,	r0	
 37c:	b8 7f f0 07 	subc	@r15+,	2032(r8);0x07f0(r8)
 380:	f8 07       	suba	r7,	r8	
 382:	01 00       	mova	@r0,	r1	
 384:	5c f8 07 18 	and.b	6151(r8),r12	;0x1807(r8)
 388:	08 03       	mova	#2,	r8	;r3 As==10
 38a:	00 91       	cmp	r1,	r0	
 38c:	b8 7f 00 00 	subc	@r15+,	0(r8)	;0x0000(r8)
 390:	00 00       	bra	@r0		
 392:	8a 01 cc 01 	mova	#0x101cc,r10	
 396:	02 00       	mova	@r0,	r2	
 398:	30 9f       	cmp	@r15+,	r0	
 39a:	cc 01       	mova	r1,	r12	
 39c:	c2 07       	mova	r7,	r2	
 39e:	02 00       	mova	@r0,	r2	
 3a0:	91 46 c2 07 	mov	1986(r6),1993(r1);0x07c2(r6), 0x07c9(r1)
 3a4:	c9 07 
 3a6:	01 00       	mova	@r0,	r1	
 3a8:	5c ce 07 dc 	bic.b	-9209(r14),r12	;0xdc07(r14)
 3ac:	07 01       	mova	@r1,	r7	
 3ae:	00 5c       	add	r12,	r0	
 3b0:	dc 07       	cmpa	r7,	r12	
 3b2:	18 08       	mova	@r8+,	r8	
 3b4:	02 00       	mova	@r0,	r2	
 3b6:	91 46 00 00 	mov	0(r6),	0(r1)	;0x0000(r6), 0x0000(r1)
 3ba:	00 00 
 3bc:	8a 01 cc 01 	mova	#0x101cc,r10	
 3c0:	02 00       	mova	@r0,	r2	
 3c2:	30 9f       	cmp	@r15+,	r0	
 3c4:	cc 01       	mova	r1,	r12	
 3c6:	e6 01       	adda	r1,	r6	
 3c8:	01 00       	mova	@r0,	r1	
 3ca:	58 e6 01 02 	xor.b	513(r6),r8	;0x0201(r6)
 3ce:	02 02       	mova	#4,	r2	;r2 As==10
 3d0:	00 31       	jn	$+514    	;abs 0x5d2
 3d2:	9f 12 02 16 	call	5634(r15)	;0x1602(r15)
 3d6:	02 02       	mova	#4,	r2	;r2 As==10
 3d8:	00 30       	jn	$+2      	;abs 0x3da
 3da:	9f 16       	popm.a	#10,	r8	
 3dc:	02 b6       	bit	r6,	r2	
 3de:	03 01       	.word	0x0103;	????	Illegal as address instr
 3e0:	00 58       	add	r8,	r0	
 3e2:	d8 03       	tsta	r8		
 3e4:	dc 03       	tsta	r12		
 3e6:	01 00       	mova	@r0,	r1	
 3e8:	58 26       	jz	$-846    	;abs 0x9a
 3ea:	04 2e       	jc	$-1014   	;abs 0xfff4
 3ec:	04 02       	mova	#4,	r4	;r2 As==10
 3ee:	00 30       	jn	$+2      	;abs 0x3f0
 3f0:	9f 2e       	jc	$-704    	;abs 0x130
 3f2:	04 32       	jn	$-1014   	;abs 0xfffc
 3f4:	04 01       	mova	@r1,	r4	
 3f6:	00 58       	add	r8,	r0	
 3f8:	60 04 8e 04 	mova	r4,	&0x0048e
 3fc:	01 00       	mova	@r0,	r1	
 3fe:	58 c6 04 cc 	bic.b	-13308(r6),r8	;0xcc04(r6)
 402:	04 01       	mova	@r1,	r4	
 404:	00 58       	add	r8,	r0	
 406:	c0 07       	bra	r7		
 408:	c2 07       	mova	r7,	r2	
 40a:	02 00       	mova	@r0,	r2	
 40c:	30 9f       	cmp	@r15+,	r0	
 40e:	c2 07       	mova	r7,	r2	
 410:	dc 07       	cmpa	r7,	r12	
 412:	01 00       	mova	@r0,	r1	
 414:	58 e0 07 f8 	xor.b	-2041(r0),r8	;PC rel. 0xfc1d
 418:	07 01       	mova	@r1,	r7	
 41a:	00 58       	add	r8,	r0	
 41c:	02 08       	mova	@r8,	r2	
 41e:	18 08       	mova	@r8+,	r8	
 420:	01 00       	mova	@r0,	r1	
 422:	58 00       	rrcm	#1,	r8	
 424:	00 00       	bra	@r0		
 426:	00 8a       	sub	r10,	r0	
 428:	01 cc       	bic	r12,	r1	
 42a:	01 02       	mova	#4,	r1	;r2 As==10
 42c:	00 30       	jn	$+2      	;abs 0x42e
 42e:	9f cc 01 de 	bic	-8703(r12),769(r15);0xde01(r12), 0x0301(r15)
 432:	01 03 
 434:	00 91       	cmp	r1,	r0	
 436:	ba 7f de 01 	subc	@r15+,	478(r10);0x01de(r10)
 43a:	02 02       	mova	#4,	r2	;r2 As==10
 43c:	02 00       	mova	@r0,	r2	
 43e:	30 9f       	cmp	@r15+,	r0	
 440:	02 02       	mova	#4,	r2	;r2 As==10
 442:	3e 03 03 00 	mova	#1,	r14	;r3 As==01
 446:	91 ba 7f 3e 	bit	15999(r10),16387(r1);0x3e7f(r10), 0x4003(r1)
 44a:	03 40 
 44c:	03 04       	.word	0x0403;	????	Illegal as address instr
 44e:	00 91       	cmp	r1,	r0	
 450:	b8 7f 06 40 	subc	@r15+,	16390(r8);0x4006(r8)
 454:	03 90       	.word	0x9003;	????	Illegal as 2-op instr
 456:	03 03       	.word	0x0303;	????	Illegal as address instr
 458:	00 91       	cmp	r1,	r0	
 45a:	ba 7f 90 03 	subc	@r15+,	912(r10);0x0390(r10)
 45e:	aa 03 07 00 	adda	#0x30007,r10	
 462:	91 ba 7f 06 	bit	1663(r10),7738(r1);0x067f(r10), 0x1e3a(r1)
 466:	3a 1e 
 468:	9f aa 03 f8 	dadd	-2045(r10),775(r15);0xf803(r10), 0x0307(r15)
 46c:	07 03 
 46e:	00 91       	cmp	r1,	r0	
 470:	ba 7f 02 08 	subc	@r15+,	2050(r10);0x0802(r10)
 474:	18 08       	mova	@r8+,	r8	
 476:	03 00       	.word	0x0003;	????	Illegal as address instr
 478:	91 ba 7f 00 	bit	127(r10),0(r1)	;0x007f(r10), 0x0000(r1)
 47c:	00 00 
 47e:	00 8a       	sub	r10,	r0	
 480:	01 cc       	bic	r12,	r1	
 482:	01 02       	mova	#4,	r1	;r2 As==10
 484:	00 30       	jn	$+2      	;abs 0x486
 486:	9f cc 01 de 	bic	-8703(r12),513(r15);0xde01(r12), 0x0201(r15)
 48a:	01 02 
 48c:	00 91       	cmp	r1,	r0	
 48e:	4a de       	bis.b	r14,	r10	
 490:	01 02       	mova	#4,	r1	;r2 As==10
 492:	02 02       	mova	#4,	r2	;r2 As==10
 494:	00 30       	jn	$+2      	;abs 0x496
 496:	9f 02 02 f8 	cmpa	#0x2f802,r15	
 49a:	07 02       	mova	#4,	r7	;r2 As==10
 49c:	00 91       	cmp	r1,	r0	
 49e:	4a 02       	rlam.a	#1,	r10	
 4a0:	08 18       	.word	0x1808;	????	
 4a2:	08 02       	mova	#4,	r8	;r2 As==10
 4a4:	00 91       	cmp	r1,	r0	
 4a6:	4a 00       	rrcm.a	#1,	r10	
 4a8:	00 00       	bra	@r0		
 4aa:	00 8a       	sub	r10,	r0	
 4ac:	01 cc       	bic	r12,	r1	
 4ae:	01 01       	mova	@r1,	r1	
 4b0:	00 5e       	add	r14,	r0	
 4b2:	cc 01       	mova	r1,	r12	
 4b4:	e6 01       	adda	r1,	r6	
 4b6:	02 00       	mova	@r0,	r2	
 4b8:	91 5a e6 01 	add	486(r10),514(r1)	;0x01e6(r10), 0x0202(r1)
 4bc:	02 02 
 4be:	01 00       	mova	@r0,	r1	
 4c0:	5c 02       	rlam	#1,	r12	
 4c2:	02 c2       	bic	r2,	r2	
 4c4:	07 02       	mova	#4,	r7	;r2 As==10
 4c6:	00 91       	cmp	r1,	r0	
 4c8:	5a c2 07 c4 	bic.b	&0xc407,r10	
 4cc:	07 01       	mova	@r1,	r7	
 4ce:	00 5a       	add	r10,	r0	
 4d0:	c4 07       	mova	r7,	r4	
 4d2:	c6 07       	mova	r7,	r6	
 4d4:	03 00       	.word	0x0003;	????	Illegal as address instr
 4d6:	7a 7f       	subc.b	@r15+,	r10	
 4d8:	9f c6 07 ca 	bic	-13817(r6),263(r15);0xca07(r6), 0x0107(r15)
 4dc:	07 01 
 4de:	00 5a       	add	r10,	r0	
 4e0:	ce 07       	mova	r7,	r14	
 4e2:	dc 07       	cmpa	r7,	r12	
 4e4:	01 00       	mova	@r0,	r1	
 4e6:	5a dc 07 18 	bis.b	6151(r12),r10	;0x1807(r12)
 4ea:	08 02       	mova	#4,	r8	;r2 As==10
 4ec:	00 91       	cmp	r1,	r0	
 4ee:	5a 00       	rrcm	#1,	r10	
 4f0:	00 00       	bra	@r0		
 4f2:	00 ca       	bic	r10,	r0	
 4f4:	03 d8       	.word	0xd803;	????	Illegal as 2-op instr
 4f6:	03 04       	.word	0x0403;	????	Illegal as address instr
 4f8:	00 91       	cmp	r1,	r0	
 4fa:	9e 7f 9f e4 	subc	-7009(r15),3075(r14);0xe49f(r15), 0x0c03(r14)
 4fe:	03 0c 
 500:	04 01       	mova	@r1,	r4	
 502:	00 5e       	add	r14,	r0	
 504:	7c 05 80 05 	mova	r5,	1408(r12);0x0580(r12)
 508:	04 00       	mova	@r0,	r4	
 50a:	91 b5 7f 9f 	bit	-24705(r5),1408(r1);0x9f7f(r5), 0x0580(r1)
 50e:	80 05 
 510:	98 05 04 00 	cmpa	#0x50004,r8	
 514:	91 b4 7f 9f 	bit	-24705(r4),1520(r1);0x9f7f(r4), 0x05f0(r1)
 518:	f0 05 
 51a:	40 06       	rlam.a	#2,	r0	
 51c:	01 00       	mova	@r0,	r1	
 51e:	5b 40 06 62 	mov.b	25094(r0),r11	;PC rel. 0x6726
 522:	06 04       	mova	@r4,	r6	
 524:	00 91       	cmp	r1,	r0	
 526:	b4 7f 9f aa 	subc	@r15+,	-21857(r4);0xaa9f(r4)
 52a:	06 dc       	bis	r12,	r6	
 52c:	06 01       	mova	@r1,	r6	
 52e:	00 5b       	add	r11,	r0	
 530:	dc 06       	cmpa	r6,	r12	
 532:	e4 06       	adda	r6,	r4	
 534:	04 00       	mova	@r0,	r4	
 536:	91 b4 7f 9f 	bit	-24705(r4),1820(r1);0x9f7f(r4), 0x071c(r1)
 53a:	1c 07 
 53c:	c2 07       	mova	r7,	r2	
 53e:	01 00       	mova	@r0,	r1	
 540:	5b 00       	rrcm	#1,	r11	
 542:	00 00       	bra	@r0		
 544:	00 cc       	bic	r12,	r0	
 546:	01 08       	mova	@r8,	r1	
 548:	02 01       	mova	@r1,	r2	
 54a:	00 5e       	add	r14,	r0	
 54c:	16 02       	mova	#8,	r6	;r2 As==11
 54e:	d6 02       	cmpa	r2,	r6	
 550:	01 00       	mova	@r0,	r1	
 552:	5e d6 02 be 	bis.b	-16894(r6),r14	;0xbe02(r6)
 556:	03 05       	.word	0x0503;	????	Illegal as address instr
 558:	00 91       	cmp	r1,	r0	
 55a:	5c 06       	rlam	#2,	r12	
 55c:	31 1c       	.word	0x1c31;	????	
 55e:	be 03 d8 03 	suba	#0x303d8,r14	
 562:	04 00       	mova	@r0,	r4	
 564:	91 b8 7f 06 	bit	1663(r8),984(r1)	;0x067f(r8), 0x03d8(r1)
 568:	d8 03 
 56a:	e4 03       	incda	r4		
 56c:	05 00       	mova	@r0,	r5	
 56e:	91 5c 06 31 	add	12550(r12),11804(r1);0x3106(r12), 0x2e1c(r1)
 572:	1c 2e 
 574:	04 3a       	jl	$-1014   	;abs 0x17e
 576:	04 01       	mova	@r1,	r4	
 578:	00 5e       	add	r14,	r0	
 57a:	3a 04 98 05 	mova	1432(r4),r10	;0x0598(r4)
 57e:	05 00       	mova	@r0,	r5	
 580:	91 5c 06 31 	add	12550(r12),16412(r1);0x3106(r12), 0x401c(r1)
 584:	1c 40 
 586:	06 62       	addc	r2,	r6	
 588:	06 05       	mova	@r5,	r6	
 58a:	00 91       	cmp	r1,	r0	
 58c:	5c 06       	rlam	#2,	r12	
 58e:	31 1c       	.word	0x1c31;	????	
 590:	dc 06       	cmpa	r6,	r12	
 592:	e4 06       	adda	r6,	r4	
 594:	05 00       	mova	@r0,	r5	
 596:	91 5c 06 31 	add	12550(r12),-8164(r1);0x3106(r12), 0xe01c(r1)
 59a:	1c e0 
 59c:	07 f0       	and	r0,	r7	
 59e:	07 01       	mova	@r1,	r7	
 5a0:	00 5e       	add	r14,	r0	
 5a2:	f0 07       	suba	r7,	r0	
 5a4:	fe 07       	suba	r7,	r14	
 5a6:	05 00       	mova	@r0,	r5	
 5a8:	91 5c 06 31 	add	12550(r12),1052(r1);0x3106(r12), 0x041c(r1)
 5ac:	1c 04 
 5ae:	08 18       	.word	0x1808;	????	
 5b0:	08 02       	mova	#4,	r8	;r2 As==10
 5b2:	00 7c       	subc	r12,	r0	
 5b4:	00 00       	bra	@r0		
 5b6:	00 00       	bra	@r0		
 5b8:	00 3c       	jmp	$+2      	;abs 0x5ba
 5ba:	04 60       	addc	r0,	r4	
 5bc:	04 02       	mova	#4,	r4	;r2 As==10
 5be:	00 40       	br	r0		
 5c0:	9f 78 04 c2 	subc	-15868(r8),775(r15);0xc204(r8), 0x0307(r15)
 5c4:	07 03 
 5c6:	00 91       	cmp	r1,	r0	
 5c8:	bc 7f 00 00 	subc	@r15+,	0(r12)	;0x0000(r12)
 5cc:	00 00       	bra	@r0		
 5ce:	8a 01 cc 01 	mova	#0x101cc,r10	
 5d2:	02 00       	mova	@r0,	r2	
 5d4:	30 9f       	cmp	@r15+,	r0	
 5d6:	cc 01       	mova	r1,	r12	
 5d8:	e6 01       	adda	r1,	r6	
 5da:	02 00       	mova	@r0,	r2	
 5dc:	91 44 e6 01 	mov	486(r4),514(r1)	;0x01e6(r4), 0x0202(r1)
 5e0:	02 02 
 5e2:	02 00       	mova	@r0,	r2	
 5e4:	30 9f       	cmp	@r15+,	r0	
 5e6:	02 02       	mova	#4,	r2	;r2 As==10
 5e8:	aa 03 02 00 	adda	#0x30002,r10	
 5ec:	91 44 aa 03 	mov	938(r4),946(r1)	;0x03aa(r4), 0x03b2(r1)
 5f0:	b2 03 
 5f2:	02 00       	mova	@r0,	r2	
 5f4:	31 9f       	cmp	@r15+,	r1	
 5f6:	b2 03 f8 07 	suba	#0x307f8,r2	
 5fa:	02 00       	mova	@r0,	r2	
 5fc:	91 44 02 08 	mov	2050(r4),2072(r1);0x0802(r4), 0x0818(r1)
 600:	18 08 
 602:	02 00       	mova	@r0,	r2	
 604:	91 44 00 00 	mov	0(r4),	0(r1)	;0x0000(r4), 0x0000(r1)
 608:	00 00 
 60a:	8a 01 cc 01 	mova	#0x101cc,r10	
 60e:	02 00       	mova	@r0,	r2	
 610:	30 9f       	cmp	@r15+,	r0	
 612:	cc 01       	mova	r1,	r12	
 614:	e6 01       	adda	r1,	r6	
 616:	02 00       	mova	@r0,	r2	
 618:	91 48 e6 01 	mov	486(r8),514(r1)	;0x01e6(r8), 0x0202(r1)
 61c:	02 02 
 61e:	02 00       	mova	@r0,	r2	
 620:	30 9f       	cmp	@r15+,	r0	
 622:	02 02       	mova	#4,	r2	;r2 As==10
 624:	f8 07       	suba	r7,	r8	
 626:	02 00       	mova	@r0,	r2	
 628:	91 48 02 08 	mov	2050(r8),2072(r1);0x0802(r8), 0x0818(r1)
 62c:	18 08 
 62e:	02 00       	mova	@r0,	r2	
 630:	91 48 00 00 	mov	0(r8),	0(r1)	;0x0000(r8), 0x0000(r1)
 634:	00 00 
 636:	8a 01 cc 01 	mova	#0x101cc,r10	
 63a:	02 00       	mova	@r0,	r2	
 63c:	30 9f       	cmp	@r15+,	r0	
 63e:	cc 01       	mova	r1,	r12	
 640:	e6 01       	adda	r1,	r6	
 642:	02 00       	mova	@r0,	r2	
 644:	91 45 e6 01 	mov	486(r5),514(r1)	;0x01e6(r5), 0x0202(r1)
 648:	02 02 
 64a:	02 00       	mova	@r0,	r2	
 64c:	30 9f       	cmp	@r15+,	r0	
 64e:	02 02       	mova	#4,	r2	;r2 As==10
 650:	f8 07       	suba	r7,	r8	
 652:	02 00       	mova	@r0,	r2	
 654:	91 45 02 08 	mov	2050(r5),2072(r1);0x0802(r5), 0x0818(r1)
 658:	18 08 
 65a:	02 00       	mova	@r0,	r2	
 65c:	91 45 00 00 	mov	0(r5),	0(r1)	;0x0000(r5), 0x0000(r1)
 660:	00 00 
 662:	8a 01 cc 01 	mova	#0x101cc,r10	
 666:	02 00       	mova	@r0,	r2	
 668:	30 9f       	cmp	@r15+,	r0	
 66a:	cc 01       	mova	r1,	r12	
 66c:	e6 01       	adda	r1,	r6	
 66e:	02 00       	mova	@r0,	r2	
 670:	91 49 e6 01 	mov	486(r9),514(r1)	;0x01e6(r9), 0x0202(r1)
 674:	02 02 
 676:	02 00       	mova	@r0,	r2	
 678:	30 9f       	cmp	@r15+,	r0	
 67a:	02 02       	mova	#4,	r2	;r2 As==10
 67c:	f8 07       	suba	r7,	r8	
 67e:	02 00       	mova	@r0,	r2	
 680:	91 49 02 08 	mov	2050(r9),2072(r1);0x0802(r9), 0x0818(r1)
 684:	18 08 
 686:	02 00       	mova	@r0,	r2	
 688:	91 49 00 00 	mov	0(r9),	0(r1)	;0x0000(r9), 0x0000(r1)
 68c:	00 00 
 68e:	80 07 96 07 	bra	#0x70796	
 692:	01 00       	mova	@r0,	r1	
 694:	5c 00       	rrcm	#1,	r12	
 696:	00 00       	bra	@r0		
 698:	00 36       	jge	$-1022   	;abs 0x29a
 69a:	03 60       	.word	0x6003;	????	Illegal as 2-op instr
 69c:	03 04       	.word	0x0403;	????	Illegal as address instr
 69e:	00 91       	cmp	r1,	r0	
 6a0:	b8 7f 06 f0 	subc	@r15+,	-4090(r8);0xf006(r8)
 6a4:	07 f8       	and	r8,	r7	
 6a6:	07 01       	mova	@r1,	r7	
 6a8:	00 5e       	add	r14,	r0	
 6aa:	00 00       	bra	@r0		
 6ac:	00 00       	bra	@r0		
 6ae:	c4 05       	mova	r5,	r4	
 6b0:	f6 05       	suba	r5,	r6	
 6b2:	01 00       	mova	@r0,	r1	
 6b4:	5c 00       	rrcm	#1,	r12	
 6b6:	00 00       	bra	@r0		
 6b8:	00 7e       	subc	r14,	r0	
 6ba:	06 b2       	bit	r2,	r6	
 6bc:	06 01       	mova	@r1,	r6	
 6be:	00 5e       	add	r14,	r0	
 6c0:	00 00       	bra	@r0		
 6c2:	00 00       	bra	@r0		
 6c4:	f0 06       	suba	r6,	r0	
 6c6:	22 07 01 00 	mova	&0x70001,r2	
 6ca:	5f 00       	rrcm	#1,	r15	
 6cc:	00 00       	bra	@r0		
 6ce:	00 00       	bra	@r0		
 6d0:	00 02       	bra	#4		;r2 As==10
 6d2:	00 02       	bra	#4		;r2 As==10
 6d4:	00 71       	subc	r1,	r0	
 6d6:	02 02       	mova	#4,	r2	;r2 As==10
 6d8:	00 2c       	jc	$+2      	;abs 0x6da
 6da:	00 02       	bra	#4		;r2 As==10
 6dc:	00 71       	subc	r1,	r0	
 6de:	04 00       	mova	@r0,	r4	
 6e0:	00 00       	bra	@r0		
 6e2:	00 00       	bra	@r0		
 6e4:	00 04       	bra	@r4		
 6e6:	00 01       	bra	@r1		
 6e8:	00 5f       	add	r15,	r0	
 6ea:	04 00       	mova	@r0,	r4	
 6ec:	2a 00 01 00 	mova	&0x00001,r10	
 6f0:	5b 00       	rrcm	#1,	r11	
 6f2:	00 00       	bra	@r0		
	...

Disassembly of section .debug_ranges:

00000000 <.debug_ranges>:
   0:	ac 01 c8 01 	adda	#0x101c8,r12	
   4:	42 07       	rrum.a	#2,	r2	
   6:	96 07 00 00 	cmpa	#0x70000,r6	
   a:	00 00       	bra	@r0		
   c:	2a 03 60 03 	mova	&0x30360,r10	
  10:	f0 07       	suba	r7,	r0	
  12:	fe 07       	suba	r7,	r14	
  14:	00 00       	bra	@r0		
	...
